(lp0
(lp1
S'Gerious Youseff'
p2
aS'Mrs'
p3
aa(lp4
S'Elmer Zebley Taylor'
p5
ag3
aa(lp6
S'Samuel'
p7
ag3
aa(lp8
S'John Horgan'
p9
ag3
aa(lp10
S'Anthony Abbing'
p11
aS'Mr'
p12
aa(lp13
S'Jaako Arnold Panula'
p14
ag3
aa(lp15
S'Gertrude Maybelle Thorne'
p16
ag3
aa(lp17
S'Edith Martha Bowerman'
p18
ag12
aa(lp19
S'Ellen Natalia Pettersson'
p20
ag12
aa(lp21
S'Moses Aaron Troupiansky'
p22
ag3
aa(lp23
S'Agnes McCoy'
p24
ag3
aa(lp25
S'Elna Matilda Persson'
p26
ag3
aa(lp27
S'Jean Baptiste'
p28
ag12
aa(lp29
S'Gustaf Joel Johansson'
p30
ag3
aa(lp31
S'Erna Alexandra Andersson'
p32
ag3
aa(lp33
S'Henry Sleeper'
p34
ag3
aa(lp35
S'Albert Adrian Dick'
p36
ag12
aa(lp37
S'August Viktor Larsson'
p38
ag3
aa(lp39
S'Sinai Kantor'
p40
ag3
aa(lp41
S'Khalil Saad'
p42
ag3
aa(lp43
S'Mary Conover Lines'
p44
ag3
aa(lp45
S'Daniel J Moran'
p46
ag3
aa(lp47
S'Leah Rosen'
p48
ag12
aa(lp49
S"Maurice O'Connor"
p50
ag12
aa(lp51
S'Frederick Maxfield'
p52
ag12
aa(lp53
S'Arne Jonas Fahlstrom'
p54
ag3
aa(lp55
S'Mantoura Boulos'
p56
ag3
aa(lp57
S'Alma Cornelia Berglund'
p58
ag3
aa(lp59
S'Samuel Beard Risien'
p60
ag12
aa(lp61
S'Antti Gustaf Leinonen'
p62
ag12
aa(lp63
S'Benjamin Hart'
p64
ag3
aa(lp65
S'Hammad Hassab'
p66
ag3
aa(lp67
S'Helena Wilhelmina'
p68
ag12
aa(lp69
S'Leo Edmondus Vander Planke'
p70
ag3
aa(lp71
S'Leontine Pauline Aubart'
p72
ag3
aa(lp73
S'Thomas William Solomon Brown'
p74
ag12
aa(lp75
S'John Garfirth'
p76
ag12
aa(lp77
S'Nils'
p78
ag3
aa(lp79
S'Margaret "Maggie" Madigan'
p80
ag3
aa(lp81
S'Lulu Thorne Christian'
p82
ag3
aa(lp83
S'Thomas'
p84
ag3
aa(lp85
S'Antoni Yasbeck'
p86
ag3
aa(lp87
S'Charles Frederick Waddington Sedgwick'
p88
ag3
aa(lp89
S'Washington Dodge'
p90
ag12
aa(lp91
S'Clara Heinsheimer'
p92
ag3
aa(lp93
S'Dorothy Edith "Dolly" Sage'
p94
ag3
aa(lp95
S'Andrew G Johnston'
p96
ag3
aa(lp97
S'William Henry Gillespie'
p98
ag3
aa(lp99
S'Gurshon "Gus" Cohen'
p100
ag3
aa(lp101
S'Mary D Kingcome'
p102
ag3
aa(lp103
S'Charles Wilhelms'
p104
ag12
aa(lp105
S'Catherine Rizk'
p106
ag12
aa(lp107
S'Edgardo Samuel Andrew'
p108
ag3
aa(lp109
S'George'
p110
ag3
aa(lp111
S'Sidney Samuel'
p112
ag3
aa(lp113
S'Amelia Milley'
p114
ag12
aa(lp115
S'Lilian Hughes'
p116
ag3
aa(lp117
S'Charles Leonard Kirkland'
p118
ag3
aa(lp119
S'Hedwig Margaritha Frolicher'
p120
ag3
aa(lp121
S'Robert Douglas Norman'
p122
ag3
aa(lp123
S'Ebba Iris Alfrida Andersson'
p124
ag12
aa(lp125
S'Wilhelm'
p126
ag12
aa(lp127
S'Delia Henry'
p128
ag3
aa(lp129
S'Patrick Connors'
p130
ag12
aa(lp131
S'Anna Sofia Sjoblom'
p132
ag3
aa(lp133
S'Pekka Pietari'
p134
ag3
aa(lp135
S'Konrad Mathias Reiersen Hagland'
p136
ag3
aa(lp137
S'Alfred Ossian Gustafsson'
p138
ag3
aa(lp139
S'Kristina Sofia Laitinen'
p140
ag3
aa(lp141
S'Hugh Woolner'
p142
ag3
aa(lp143
S'Henry Blank'
p144
ag3
aa(lp145
S'Henry Birkhardt Harris'
p146
ag3
aa(lp147
S'Thornton Davidson'
p148
ag3
aa(lp149
S'Saiide Barbara'
p150
ag12
aa(lp151
S'Johanna Persdotter Larsson'
p152
ag3
aa(lp153
S'Anna Sigrid Maria Brogren'
p154
ag3
aa(lp155
S'Caroline Louise Endres'
p156
ag3
aa(lp157
S'Jeremiah Burke'
p158
ag3
aa(lp159
S'"Louis M Hoffman"'
p160
ag3
aa(lp161
S'Susan Parker "Suzette" Ryerson'
p162
ag3
aa(lp163
S'Thomas Drake Martinez Cardeza'
p164
ag3
aa(lp165
S'Charles Hallace'
p166
ag3
aa(lp167
S'Martin McMahon'
p168
ag3
aa(lp169
S'Victor de Satode Penasco y Castellana'
p170
ag12
aa(lp171
S'George Hugh Rice'
p172
ag3
aa(lp173
S'Berk'
p174
ag12
aa(lp175
S'John Farthing'
p176
ag3
aa(lp177
S'Ahmed Ali'
p178
ag12
aa(lp179
S'Emma'
p180
ag12
aa(lp181
S'Helen Walton'
p182
ag3
aa(lp183
S'Margaret Bechstein Hays'
p184
ag12
aa(lp185
S'Bertha Lehmann'
p186
ag12
aa(lp187
S'Wazli Yousif'
p188
ag3
aa(lp189
S'Roberta Maioni'
p190
ag12
aa(lp191
S'Eino Viljami Panula'
p192
ag12
aa(lp193
S'Maria Josefa Perez de Soto y Vallejo'
p194
ag3
aa(lp195
S'Pehr Fabian Oliver Malkolm Myhrman'
p196
ag12
aa(lp197
S'David Charters'
p198
ag3
aa(lp199
S'Joseph Philippe Lemercier Laroche'
p200
ag3
aa(lp201
S'Elisabeth Walton Allen'
p202
ag12
aa(lp203
S'George B Goldschmidt'
p204
ag3
aa(lp205
S'Johannes Joseph Vande Velde'
p206
ag3
aa(lp207
S'Ellen Toomey'
p208
ag12
aa(lp209
S'William John Mellors'
p210
ag3
aa(lp211
S'Walter Donald Douglas'
p212
ag3
aa(lp213
S'Roger Tobin'
p214
ag12
aa(lp215
S'Wilhelm Skoog'
p216
ag12
aa(lp217
S'Frederick Sutton'
p218
ag12
aa(lp219
S'Samuel L Goldenberg'
p220
ag12
aa(lp221
S'Gladys Cherry'
p222
ag3
aa(lp223
S'"Mr C Rolmane"'
p224
ag3
aa(lp225
S'Richard Otter'
p226
ag3
aa(lp227
S'Margaret Edith Graham'
p228
ag12
aa(lp229
S'Ellis Anna Maria Andersson'
p230
ag3
aa(lp231
S'Johan Emil Petterson'
p232
ag12
aa(lp233
S'Lionel Leonard'
p234
ag12
aa(lp235
S'Thomas Henry Sage'
p236
ag3
aa(lp237
S'Cosmo Edmund'
p238
ag3
aa(lp239
S'Edvin Rojj Felix Asplund'
p240
ag3
aa(lp241
S'Lewis Richard Braund'
p242
ag3
aa(lp243
S'Malake Attalah'
p244
ag12
aa(lp245
S'Youssef Samaan'
p246
ag3
aa(lp247
S'Peter Andreas Lauritz Andersen Soholt'
p248
ag12
aa(lp249
S'Farnham'
p250
ag12
aa(lp251
S'Mabel Helen Fortune'
p252
ag3
aa(lp253
S'Hanne Youssef Razi'
p254
ag3
aa(lp255
S'Harvey'
p256
ag3
aa(lp257
S'Ivan Stankovic'
p258
ag3
aa(lp259
S'Richard Fry'
p260
ag3
aa(lp261
S'Marie Eugenie'
p262
ag3
aa(lp263
S'Milan Karaic'
p264
ag12
aa(lp265
S'Edward Dale'
p266
ag3
aa(lp267
S'Margaretta Corning Stone'
p268
ag3
aa(lp269
S'Tillie Mandelbaum'
p270
ag3
aa(lp271
S'Helene Barbara Baclini'
p272
ag3
aa(lp273
S'Selma Augusta Emilia Johansson'
p274
ag12
aa(lp275
S'Elin Matilda Dolck'
p276
ag12
aa(lp277
S'Hanna Boulos'
p278
ag12
aa(lp279
S'Bertram Frank Dean'
p280
ag3
aa(lp281
S'Dickinson H'
p282
ag3
aa(lp283
S'Chang Chip'
p284
ag3
aa(lp285
S'William John Robert Turpin'
p286
ag12
aa(lp287
S'John Simmons'
p288
ag12
aa(lp289
S'John George Reuchlin'
p290
ag3
aa(lp291
S'Alice Adelaide Slow'
p292
ag3
aa(lp293
S'Simon Maisner'
p294
ag3
aa(lp295
S'Eleanor Ileen Johnson'
p296
ag3
aa(lp297
S'Patrick Ryan'
p298
ag12
aa(lp299
S'Philemon van Melkebeke'
p300
ag12
aa(lp301
S'Yoto Danoff'
p302
ag3
aa(lp303
S'Fatima Masselmani'
p304
ag12
aa(lp305
S'Wendla Maria Heininen'
p306
ag3
aa(lp307
S'Sidney Samuel Jacobsohn'
p308
ag3
aa(lp309
S'Lillian Gertrud Asplund'
p310
ag3
aa(lp311
S'Anthony Wood "Archie" Frost'
p312
ag3
aa(lp313
S'Augusta Maria Vander Planke'
p314
ag3
aa(lp315
S'Lily Alexenia Wilson'
p316
ag3
aa(lp317
S'Johan Werner Salonen'
p318
ag3
aa(lp319
S'Edgar Joseph Meyer'
p320
ag12
aa(lp321
S'Assad Alexander Thomas'
p322
ag3
aa(lp323
S'Madeleine Talmadge Force'
p324
ag12
aa(lp325
S'John Adams'
p326
ag3
aa(lp327
S'William Henry Marsh Parr'
p328
ag12
aa(lp329
S'Anders Johan Andersson'
p330
ag3
aa(lp331
S'Henry Birkhardt'
p332
ag12
aa(lp333
S'Elizabeth Anne Wilkinson'
p334
ag3
aa(lp335
S'Petar Calic'
p336
ag3
aa(lp337
S'Florence Kate White'
p338
ag3
aa(lp339
S'Andrew "Andy" Keane'
p340
ag3
aa(lp341
S'Fang Lang'
p342
ag12
aa(lp343
S'Alexander Oskar'
p344
ag12
aa(lp345
S'of'
p346
ag3
aa(lp347
S'Henry Forbes Lefebre'
p348
ag12
aa(lp349
S'Branko Dakic'
p350
ag3
aa(lp351
S'Hudson J C'
p352
ag3
aa(lp353
S'Johan Henrik Johannesson Kvillner'
p354
ag3
aa(lp355
S'William Carbines'
p356
ag12
aa(lp357
S'Patrick Dooley'
p358
ag12
aa(lp359
S'Elisabeth Vilhelmina Berg'
p360
ag3
aa(lp361
S'Stefo Pavlovic'
p362
ag3
aa(lp363
S'Catherine'
p364
ag12
aa(lp365
S'Johan Ekstrom'
p366
ag3
aa(lp367
S'Mari Aina Jussila'
p368
ag3
aa(lp369
S'Pierre Marechal'
p370
ag3
aa(lp371
S'Kurt Arnold Gottfrid Bryhl'
p372
ag12
aa(lp373
S'Viljo Hamalainen'
p374
ag3
aa(lp375
S'Knud Paust Rommetvedt'
p376
ag3
aa(lp377
S'Frank Duane'
p378
ag3
aa(lp379
S'Constance Gladys Sage'
p380
ag3
aa(lp381
S'Luise Gretchen Kink-Heilmann'
p382
ag3
aa(lp383
S'Anna Katherine "Annie Kate" Kelly'
p384
ag3
aa(lp385
S'George Henry Green'
p386
ag12
aa(lp387
S'John Viktor Bengtsson'
p388
ag3
aa(lp389
S'William Frederick Goodwin'
p390
ag3
aa(lp391
S'Edvard Pekoniemi'
p392
ag3
aa(lp393
S'Lyyli Karoliina Silven'
p394
ag12
aa(lp395
S'Frederick Maxfield Hoyt'
p396
ag12
aa(lp397
S'Josef'
p398
ag12
aa(lp399
S'Hildur E Hirvonen'
p400
ag12
aa(lp401
S'Madeleine Violet Mellinger'
p402
ag3
aa(lp403
S'Henry Margido Olsen'
p404
ag3
aa(lp405
S'Lillian Amy Goodwin'
p406
ag3
aa(lp407
S'Paul Edvin Andreasson'
p408
ag3
aa(lp409
S"Thomas O'Brien"
p410
ag3
aa(lp411
S'Thomas J Kilgannon'
p412
ag3
aa(lp413
S'Oscar W'
p414
ag12
aa(lp415
S'Edwy Arthur West'
p416
ag3
aa(lp417
S'William Fisher Hoyt'
p418
ag12
aa(lp419
S'William Harrison'
p420
ag12
aa(lp421
S'Emil'
p422
ag3
aa(lp423
S'Malkolm Joackim Johnson'
p424
ag3
aa(lp425
S'Jeannie Lefebre'
p426
ag3
aa(lp427
S'Latifa Qurban'
p428
ag3
aa(lp429
S'Manuel E Uruchurtu'
p430
ag3
aa(lp431
S'Jacques Heath'
p432
ag3
aa(lp433
S'Marion Elsie Smith'
p434
ag12
aa(lp435
S'Margaret Ann Watson'
p436
ag3
aa(lp437
S'David John Barton'
p438
ag12
aa(lp439
S'Martin'
p440
ag12
aa(lp441
S'Lawrence Beesley'
p442
ag3
aa(lp443
S'Johan'
p444
ag12
aa(lp445
S'Eino William Lindqvist'
p446
ag3
aa(lp447
S'August Sigfrid Carlsson'
p448
ag3
aa(lp449
S'Anna Sinkkonen'
p450
ag3
aa(lp451
S'William Baird Silvey'
p452
ag12
aa(lp453
S'Gretchen Fiske Longley'
p454
ag3
aa(lp455
S'Sigvard Harald Elias Andersson'
p456
ag3
aa(lp457
S'Elizabeth Bonnell'
p458
ag12
aa(lp459
S'Ennis Hastings Watson'
p460
ag3
aa(lp461
S'Anna Sofia Turja'
p462
ag3
aa(lp463
S'Albert Adrian'
p464
ag12
aa(lp465
S'Clear Annie Cameron'
p466
ag3
aa(lp467
S'Eliina Honkanen'
p468
ag3
aa(lp469
S'Emily Borie Ryerson'
p470
ag3
aa(lp471
S'Anna Sylfven'
p472
ag3
aa(lp473
S'Harry Anderson'
p474
ag3
aa(lp475
S'Johan Julian Sundman'
p476
ag3
aa(lp477
S'Phyllis May Quick'
p478
ag12
aa(lp479
S'Amelia "Mildred" Brown'
p480
ag12
aa(lp481
S'Margaret Welles Barron'
p482
ag3
aa(lp483
S'Adele Achem'
p484
ag3
aa(lp485
S'Juha Niilo Panula'
p486
ag3
aa(lp487
S'Dorothy Ann Wonnacott'
p488
ag12
aa(lp489
S'Michel M Navratil'
p490
ag12
aa(lp491
S'Mary Agatha Glynn'
p492
ag3
aa(lp493
S'Florence "Mary" Agnes Hughes'
p494
ag12
aa(lp495
S'Nourelain Boulos'
p496
ag3
aa(lp497
S'Katherine "Katie" Gilnagh'
p498
ag3
aa(lp499
S'Asuncion Duran y More'
p500
ag3
aa(lp501
S'Karl Thorsten Skoog'
p502
ag12
aa(lp503
S'Pekka Pietari Hakkarainen'
p504
ag3
aa(lp505
S'Austin Blyler van Billiard'
p506
ag3
aa(lp507
S'Marie Grice Young'
p508
ag12
aa(lp509
S'Louis Albert'
p510
ag12
aa(lp511
S'Mary Canavan'
p512
ag3
aa(lp513
S'Marjorie "Lottie" Collyer'
p514
ag3
aa(lp515
S'Benjamin'
p516
ag3
aa(lp517
S'Ivan Staneff'
p518
ag3
aa(lp519
S'Orsen Sirayanian'
p520
ag3
aa(lp521
S'Stanton'
p522
ag3
aa(lp523
S'Edwy Arthur'
p524
ag12
aa(lp525
S'Stina Viola Palsson'
p526
ag3
aa(lp527
S'Joseph Jr Elias'
p528
ag12
aa(lp529
S'Lizzie'
p530
ag3
aa(lp531
S'Elizabeth L'
p532
ag12
aa(lp533
S'Richard George Hocking'
p534
ag3
aa(lp535
S'Norman Campbell Chambers'
p536
ag3
aa(lp537
S'Sam'
p538
ag12
aa(lp539
S'Peter Henry Renouf'
p540
ag12
aa(lp541
S'Henrik Juul Hansen'
p542
ag3
aa(lp543
S'Victor Robbins'
p544
ag3
aa(lp545
S'Alfred Johnson'
p546
ag3
aa(lp547
S'Jacob Christian Milling'
p548
ag3
aa(lp549
S'Albert Johan Moss'
p550
ag12
aa(lp551
S'Ethel Garside'
p552
ag3
aa(lp553
S'John Flynn'
p554
ag12
aa(lp555
S'Hileni Zabour'
p556
ag12
aa(lp557
S'Mauritz Hakan Bjornstrom-Steffansson'
p558
ag3
aa(lp559
S'Michael McEvoy'
p560
ag3
aa(lp561
S'Henry Michael Mitchell'
p562
ag3
aa(lp563
S'Alfred George John Rush'
p564
ag12
aa(lp565
S'Thomas Smith'
p566
ag12
aa(lp567
S'Charles Melville'
p568
ag12
aa(lp569
S'"George Arthur Brayton"'
p570
ag12
aa(lp571
S'Anna Peter'
p572
ag3
aa(lp573
S'Frederick William Shellard'
p574
ag3
aa(lp575
S'Vincenz Kink'
p576
ag3
aa(lp577
S'Ingeborg Constanzia Andersson'
p578
ag3
aa(lp579
S'Elise Lurette'
p580
ag12
aa(lp581
S'Manca Karun'
p582
ag3
aa(lp583
S'Constance Mirium West'
p584
ag3
aa(lp585
S'Elizabeth Dowdell'
p586
ag3
aa(lp587
S'Albina Bazzani'
p588
ag12
aa(lp589
S'Harold Victor Goodwin'
p590
ag12
aa(lp591
S'Elina Olsson'
p592
ag3
aa(lp593
S'Denis Lennon'
p594
ag3
aa(lp595
S'Henry Sleeper Harper'
p596
ag12
aa(lp597
S'Eliza Needs'
p598
ag3
aa(lp599
S'Mary Bourke'
p600
ag3
aa(lp601
S'Percy Andrew Bailey'
p602
ag3
aa(lp603
S'Esther Ada Bloomfield'
p604
ag3
aa(lp605
S'Elizabeth Mussey Eustis'
p606
ag12
aa(lp607
S'Frank John William "Frankie" Goldsmith'
p608
ag3
aa(lp609
S'Gustave J Lesurer'
p610
ag12
aa(lp611
S'Anders Johan'
p612
ag3
aa(lp613
S'Edward Scott'
p614
ag3
aa(lp615
S'Nils Martin Odahl'
p616
ag12
aa(lp617
S'Lucille Christiana Sutherland'
p618
ag12
aa(lp619
S'Hanna Mamee'
p620
ag12
aa(lp621
S'Charles Joseph Shorney'
p622
ag3
aa(lp623
S'John Weir'
p624
ag3
aa(lp625
S'Antti Wilhelm Sivola'
p626
ag3
aa(lp627
S'William Alexander'
p628
ag3
aa(lp629
S'Rosa'
p630
ag3
aa(lp631
S'James Lester'
p632
ag3
aa(lp633
S'Hans Kristensen Givard'
p634
ag3
aa(lp635
S'Joseph'
p636
ag12
aa(lp637
S'Pastcho'
p638
ag12
aa(lp639
S'George Floyd Eitemiller'
p640
ag3
aa(lp641
S"Timothy O'Brien"
p642
ag12
aa(lp643
S'Hilda Mary Slayter'
p644
ag3
aa(lp645
S'Phillippe Wiseman'
p646
ag3
aa(lp647
S'Karl Gideon Gustafsson'
p648
ag12
aa(lp649
S'Elizabeth Catherine Ford'
p650
ag3
aa(lp651
S'William Ali'
p652
ag3
aa(lp653
S'Todor Sdycoff'
p654
ag12
aa(lp655
S'Francis Davis Millet'
p656
ag3
aa(lp657
S'Edward Roland Stanley'
p658
ag3
aa(lp659
S'Viktor'
p660
ag3
aa(lp661
S'Mito Mitkoff'
p662
ag12
aa(lp663
S'"Pentcho"'
p664
ag12
aa(lp665
S'Meier Moor'
p666
ag3
aa(lp667
S'William'
p668
ag3
aa(lp669
S'Fared Kassem'
p670
ag12
aa(lp671
S'Maria Emilia Ojala'
p672
ag3
aa(lp673
S'Mabel Skoog'
p674
ag12
aa(lp675
S'Edward Arthur Dorking'
p676
ag3
aa(lp677
S'Alfred J Davies'
p678
ag3
aa(lp679
S'Jose Neto Jardin'
p680
ag3
aa(lp681
S'Stephen Curnow Jenkin'
p682
ag12
aa(lp683
S'Maria Elias'
p684
ag12
aa(lp685
S'Harry Corn'
p686
ag12
aa(lp687
S'Vasil Plotcharsky'
p688
ag12
aa(lp689
S'Gerios Moubarek'
p690
ag3
aa(lp691
S'"Mrs Kate Louise Phillips Marshall"'
p692
ag3
aa(lp693
S'Robina Maggie "Ruby" Ford'
p694
ag3
aa(lp695
S'Mohamed Badt'
p696
ag12
aa(lp697
S'Marin Markoff'
p698
ag12
aa(lp699
S'John Henry Chapman'
p700
ag3
aa(lp701
S'Charles Henry Davies'
p702
ag3
aa(lp703
S'Richard F Becker'
p704
ag3
aa(lp705
S'Johannes Halvorsen Kalvik'
p706
ag3
aa(lp707
S'Percival'
p708
ag12
aa(lp709
S'Emily Alice Brown'
p710
ag12
aa(lp711
S'"Mr E Haven"'
p712
ag3
aa(lp713
S'Jane Richards'
p714
ag12
aa(lp715
S'Mary Mangan'
p716
ag3
aa(lp717
S'Martin Gallagher'
p718
ag3
aa(lp719
S'Daniel Danielsen Gronnestad'
p720
ag3
aa(lp721
S'William John Robert'
p722
ag3
aa(lp723
S'Dibo Elias'
p724
ag3
aa(lp725
S'Thomas Clinton Pears'
p726
ag3
aa(lp727
S'Annie Jessie "Nina" Harper'
p728
ag3
aa(lp729
S'Victor Francis Sunderland'
p730
ag3
aa(lp731
S'Mansour Hanna'
p732
ag3
aa(lp733
S'Alden Gates Caldwell'
p734
ag12
aa(lp735
S'Henry Samuel'
p736
ag3
aa(lp737
S'Peter Denis  Daly'
p738
ag3
aa(lp739
S'Sigurd Hansen Moen'
p740
ag3
aa(lp741
S'Sara Rebecca Compton'
p742
ag3
aa(lp743
S'Victor Vander Cruyssen'
p744
ag3
aa(lp745
S'Liudevit Cor'
p746
ag3
aa(lp747
S'Emil Taussig'
p748
ag3
aa(lp749
S'Ellen "Nellie" O\'Dwyer'
p750
ag12
aa(lp751
S'Mary Hitchcock'
p752
ag3
aa(lp753
S'Amy Zillah Elsie Stanley'
p754
ag12
aa(lp755
S'Charles Duane Williams'
p756
ag3
aa(lp757
S'William Ernest Carter'
p758
ag3
aa(lp759
S'Harry Markland Molson'
p760
ag3
aa(lp761
S'Ann Elizabeth Isham'
p762
ag3
aa(lp763
S'Adele Kiamie "Jane" Najib'
p764
ag3
aa(lp765
S'Ida Sophia Fischer'
p766
ag12
aa(lp767
S'Helen Loraine Allison'
p768
ag3
aa(lp769
S'Anders Vilhelm Gustafsson'
p770
ag3
aa(lp771
S'Sinai'
p772
ag3
aa(lp773
S'Henry William'
p774
ag3
aa(lp775
S'Miriam Sternin'
p776
ag3
aa(lp777
S'John Hatfield Cribb'
p778
ag12
aa(lp779
S'William Henry Tornquist'
p780
ag3
aa(lp781
S'Eugene Patrick Daly'
p782
ag3
aa(lp783
S'Urho Abraham Panula'
p784
ag3
aa(lp785
S'Augusta Tyler'
p786
ag3
aa(lp787
S'Torborg Danira Palsson'
p788
ag12
aa(lp789
S'Neal McNamee'
p790
ag3
aa(lp791
S'William Cahoone Jr Johnson'
p792
ag12
aa(lp793
S'Francis "Frank" Parkes'
p794
ag3
aa(lp795
S'Ernest Charles Cann'
p796
ag3
aa(lp797
S'Alexander Radeff'
p798
ag12
aa(lp799
S'Alfonzo Meo'
p800
ag3
aa(lp801
S'Henriette'
p802
ag3
aa(lp803
S'Howard Hugh "Harry" Williams'
p804
ag3
aa(lp805
S'Thomas Roussel Davids Byles'
p806
ag3
aa(lp807
S'Jacob Cook'
p808
ag3
aa(lp809
S'Emil Christmann'
p810
ag12
aa(lp811
S'Harvey Collyer'
p812
ag3
aa(lp813
S'Kate Connolly'
p814
ag3
aa(lp815
S'Halim Gonios'
p816
ag3
aa(lp817
S'Samuel Dennis'
p818
ag3
aa(lp819
S'James Kelly'
p820
ag3
aa(lp821
S'Stella Anna Sage'
p822
ag3
aa(lp823
S'Dickinson H Bishop'
p824
ag3
aa(lp825
S'John Borland Thayer'
p826
ag3
aa(lp827
S'Ristiu Dantcheff'
p828
ag12
aa(lp829
S'Lucile Polk Carter'
p830
ag3
aa(lp831
S'Hans Martin Monsen Birkeland'
p832
ag3
aa(lp833
S'Algernon Henry Wilson Barkworth'
p834
ag12
aa(lp835
S'Robert J Knight'
p836
ag3
aa(lp837
S'John Borland Jr Thayer'
p838
ag3
aa(lp839
S'Berk Trembisky'
p840
ag12
aa(lp841
S'Adolphe Saalfeld'
p842
ag12
aa(lp843
S'Catherine Helen "Carrie" Johnston'
p844
ag12
aa(lp845
S'"Mary"'
p846
ag3
aa(lp847
S'Janko Vovk'
p848
ag12
aa(lp849
S'Jakob Alfred Wiklund'
p850
ag3
aa(lp851
S'Selman Francis Slocovski'
p852
ag3
aa(lp853
S'Yousseff Ibrahim Shawah'
p854
ag12
aa(lp855
S'Berthe Antonine'
p856
ag3
aa(lp857
S'Edith Wearne'
p858
ag3
aa(lp859
S'Charles Henry Chapman'
p860
ag3
aa(lp861
S'Mauritz Nils Martin Adahl'
p862
ag3
aa(lp863
S'Stoytcho Mionoff'
p864
ag3
aa(lp865
S'Kanio Ivanoff'
p866
ag3
aa(lp867
S'Hugh Roscoe Rood'
p868
ag3
aa(lp869
S'Elizabeth Anne Maidment'
p870
ag3
aa(lp871
S'Anna Bernhardina Karlsson'
p872
ag3
aa(lp873
S'John Henry Perkin'
p874
ag12
aa(lp875
S'Ignjac Hendekovic'
p876
ag3
aa(lp877
S'Ada Mary Worth'
p878
ag3
aa(lp879
S'Richard Frasar White'
p880
ag12
aa(lp881
S'Sante Ringhini'
p882
ag3
aa(lp883
S'Lewis Hickman'
p884
ag3
aa(lp885
S'Amelia Bissette'
p886
ag12
aa(lp887
S'Eliezer Gilinski'
p888
ag12
aa(lp889
S'Spencer Victor Silverthorne'
p890
ag3
aa(lp891
S'Jamila Nicola-Yarred'
p892
ag12
aa(lp893
S'Augusta Serepeca'
p894
ag12
aa(lp895
S'Thomas Jr'
p896
ag3
aa(lp897
S'Charles V'
p898
ag12
aa(lp899
S'Florence "Fannie" Kelly'
p900
ag3
aa(lp901
S'Jovo Calic'
p902
ag12
aa(lp903
S'Nedelio Petroff'
p904
ag3
aa(lp905
S'Leopold'
p906
ag3
aa(lp907
S'Thomas Charles Mudd'
p908
ag3
aa(lp909
S'Daisy E Minahan'
p910
ag12
aa(lp911
S'James Joseph'
p912
ag3
aa(lp913
S'August Edvard'
p914
ag3
aa(lp915
S'Frederick'
p916
ag12
aa(lp917
S'Francisco M Carrau'
p918
ag3
aa(lp919
S'Frederic Oakley'
p920
ag3
aa(lp921
S'Stanio Gheorgheff'
p922
ag12
aa(lp923
S'Cerin Balkic'
p924
ag3
aa(lp925
S'Henry William Frauenthal'
p926
ag12
aa(lp927
S'Andre Mallet'
p928
ag3
aa(lp929
S'George Edward Graham'
p930
ag3
aa(lp931
S'Abraham'
p932
ag12
aa(lp933
S'Juha'
p934
ag3
aa(lp935
S'Peter L Lemberopolous'
p936
ag3
aa(lp937
S'Josefine Franchi'
p938
ag12
aa(lp939
S'William Henry Allen'
p940
ag3
aa(lp941
S'Archibald Willingham Butt'
p942
ag12
aa(lp943
S'Olaf Elon Osen'
p944
ag3
aa(lp945
S'Hedwig'
p946
ag3
aa(lp947
S'Mary Natalie Wick'
p948
ag12
aa(lp949
S'Marie Marthe Thuillard'
p950
ag3
aa(lp951
S'Laina Heikkinen'
p952
ag12
aa(lp953
S'Domingos Fernandeo Coelho'
p954
ag12
aa(lp955
S'Frans Olof Carlsson'
p956
ag3
aa(lp957
S'Carla Christine Nielsine Andersen-Jensen'
p958
ag12
aa(lp959
S'"Mr Henry Marshall"'
p960
ag12
aa(lp961
S'Bernard McCoy'
p962
ag3
aa(lp963
S'Rosalie Bidois'
p964
ag3
aa(lp965
S'Ada Maria Winfield'
p966
ag3
aa(lp967
S'Husein Sivic'
p968
ag12
aa(lp969
S'Eden Leslie "Neville" Coutts'
p970
ag3
aa(lp971
S'Eugenie Baclini'
p972
ag12
aa(lp973
S'Richard William Smith'
p974
ag3
aa(lp975
S'Mathilde Lefebre'
p976
ag12
aa(lp977
S'Karl Alfred Backstrom'
p978
ag3
aa(lp979
S'Carl Oscar'
p980
ag3
aa(lp981
S'Alfred Fleming Cunningham'
p982
ag3
aa(lp983
S'Ilmari Rudolf Alhomaki'
p984
ag12
aa(lp985
S'Edward Pomeroy Colley'
p986
ag3
aa(lp987
S'Hanora "Nora" Healy'
p988
ag12
aa(lp989
S'Shadrach Gale'
p990
ag12
aa(lp991
S'Sleiman Attalah'
p992
ag3
aa(lp993
S'Margaret Fleming'
p994
ag12
aa(lp995
S'Reginald Fenton Butler'
p996
ag12
aa(lp997
S'Anna'
p998
ag12
aa(lp999
S'William Arthur'
p1000
ag3
aa(lp1001
S'William Baird'
p1002
ag3
aa(lp1003
S'Lucile Polk'
p1004
ag3
aa(lp1005
S'Matti Rintamaki'
p1006
ag12
aa(lp1007
S'John T'
p1008
ag12
aa(lp1009
S'Thomas Jr Andrews'
p1010
ag12
aa(lp1011
S'Ervin G Lewy'
p1012
ag3
aa(lp1013
S'Nestor Cyriel Vande Walle'
p1014
ag3
aa(lp1015
S'John C'
p1016
ag3
aa(lp1017
S'George Achilles Harder'
p1018
ag12
aa(lp1019
S'Luka Cacic'
p1020
ag3
aa(lp1021
S'Nora A Keane'
p1022
ag12
aa(lp1023
S'Edgar Joseph'
p1024
ag12
aa(lp1025
S'George John Jr Sage'
p1026
ag12
aa(lp1027
S'Cordelia K Stanlick'
p1028
ag12
aa(lp1029
S'Rene Jacques Levy'
p1030
ag12
aa(lp1031
S'Ida Sofia Strandberg'
p1032
ag3
aa(lp1033
S'Washington Augustus II Roebling'
p1034
ag12
aa(lp1035
S'Ethel Clarke'
p1036
ag12
aa(lp1037
S'George Dennick'
p1038
ag3
aa(lp1039
S'Velin Ohman'
p1040
ag3
aa(lp1041
S'Emelia Maria Vandemoortele'
p1042
ag3
aa(lp1043
S'Kornelia Theodosia Andrews'
p1044
ag3
aa(lp1045
S'James Flynn'
p1046
ag3
aa(lp1047
S'Ernesti Arvid Panula'
p1048
ag3
aa(lp1049
S'Albert A Stewart'
p1050
ag12
aa(lp1051
S'Katherine "Katie" Mullens'
p1052
ag12
aa(lp1053
S'Percival James R Sharp'
p1054
ag12
aa(lp1055
S'Mary E Finck'
p1056
ag3
aa(lp1057
S'William Ernest'
p1058
ag3
aa(lp1059
S'Georgette Alexandra Madill'
p1060
ag3
aa(lp1061
S'Maxmillian Frolicher-Stehli'
p1062
ag3
aa(lp1063
S"Patrick D O'Connell"
p1064
ag12
aa(lp1065
S'Leonard Mark Hickman'
p1066
ag3
aa(lp1067
S'Johanna "Hannah" Godfrey'
p1068
ag12
aa(lp1069
S'Rosalie Paula Govaert'
p1070
ag3
aa(lp1071
S'Marguerite Rut Sandstrom'
p1072
ag3
aa(lp1073
S'Arthur Keefe'
p1074
ag12
aa(lp1075
S'Lucy Noel Martha Dyer-Edwards'
p1076
ag3
aa(lp1077
S'Ida Lefebre'
p1078
ag12
aa(lp1079
S'Stanley George Hickman'
p1080
ag12
aa(lp1081
S'Marion'
p1082
ag3
aa(lp1083
S'Juozas Montvila'
p1084
ag3
aa(lp1085
S'Ilia Stoytcheff'
p1086
ag3
aa(lp1087
S'Elsie Edith Bowerman'
p1088
ag3
aa(lp1089
S'Arthur Jackson Brewe'
p1090
ag3
aa(lp1091
S'Joseph Peduzzi'
p1092
ag3
aa(lp1093
S'William James Elsbury'
p1094
ag3
aa(lp1095
S'Helen Monypeny Newsom'
p1096
ag3
aa(lp1097
S'Joseph Charles Nicholls'
p1098
ag3
aa(lp1099
S'Clarence Gustaf Hugo Asplund'
p1100
ag3
aa(lp1101
S'Kate Buss'
p1102
ag3
aa(lp1103
S'Johan Birger Gustafsson'
p1104
ag3
aa(lp1105
S'Laura Mabel Francatelli'
p1106
ag3
aa(lp1107
S'James Scanlan'
p1108
ag3
aa(lp1109
S'William James Downton'
p1110
ag3
aa(lp1111
S'John'
p1112
ag3
aa(lp1113
S'Clara Jennings Gregg'
p1114
ag12
aa(lp1115
S'Frederick Edward Giles'
p1116
ag3
aa(lp1117
S'Ali Lam'
p1118
ag12
aa(lp1119
S'Agda Thorilda Viktoria Lindahl'
p1120
ag3
aa(lp1121
S'Leonard Charles Moore'
p1122
ag3
aa(lp1123
S'Jakob Pasic'
p1124
ag3
aa(lp1125
S'Ernst Gilbert Danbom'
p1126
ag12
aa(lp1127
S'Frederick Sage'
p1128
ag3
aa(lp1129
S'Sahid Nakid'
p1130
ag12
aa(lp1131
S'Johan Svensson Lundahl'
p1132
ag12
aa(lp1133
S'Karl Edwart Dahl'
p1134
ag3
aa(lp1135
S'"Mr Morgan"'
p1136
ag12
aa(lp1137
S'Frederick Joel'
p1138
ag3
aa(lp1139
S'John Hugo Ross'
p1140
ag12
aa(lp1141
S'Amy Frances Christy'
p1142
ag3
aa(lp1143
S'William Alfred Brocklebank'
p1144
ag3
aa(lp1145
S'Elizabeth Margaret Burns'
p1146
ag12
aa(lp1147
S'Bernt Johannesen-Bratthammer'
p1148
ag3
aa(lp1149
S'Eric Rice'
p1150
ag3
aa(lp1151
S'William Anderson Walker'
p1152
ag3
aa(lp1153
S'Gustaf Hjalmar Edvardsson'
p1154
ag3
aa(lp1155
S'Ernst Gilbert'
p1156
ag3
aa(lp1157
S'Kristo Laleff'
p1158
ag3
aa(lp1159
S'Fahim'
p1160
ag12
aa(lp1161
S'Imanita Parrish Hall'
p1162
ag3
aa(lp1163
S'Amelie Icard'
p1164
ag3
aa(lp1165
S'Mark Fortune'
p1166
ag3
aa(lp1167
S'Richard Cater Nosworthy'
p1168
ag3
aa(lp1169
S'Helene DeLaudeniere Chaput'
p1170
ag12
aa(lp1171
S'Niels Peder Jensen'
p1172
ag3
aa(lp1173
S'Quigg Edmond Baxter'
p1174
ag3
aa(lp1175
S'Marie Catherine Baclini'
p1176
ag3
aa(lp1177
S'Satio Coleff'
p1178
ag3
aa(lp1179
S'Robert Mernagh'
p1180
ag3
aa(lp1181
S'Nassef Cassem Albimona'
p1182
ag3
aa(lp1183
S'Stjepan Turcin'
p1184
ag12
aa(lp1185
S'Lawrence Gavey'
p1186
ag3
aa(lp1187
S'Arthur Rice'
p1188
ag3
aa(lp1189
S'Albert Mallet'
p1190
ag3
aa(lp1191
S'James George Reed'
p1192
ag12
aa(lp1193
S'Anne Perreault'
p1194
ag3
aa(lp1195
S'Victor de Satode'
p1196
ag12
aa(lp1197
S'Elmer Zebley'
p1198
ag3
aa(lp1199
S'Richard Henry Rouse'
p1200
ag12
aa(lp1201
S'Tyrell William Cavendish'
p1202
ag3
aa(lp1203
S'Farred Chehab Emir'
p1204
ag3
aa(lp1205
S'Richard Leonard Beckwith'
p1206
ag12
aa(lp1207
S'Leslie Williams'
p1208
ag3
aa(lp1209
S'Frederick Charles Sawyer'
p1210
ag12
aa(lp1211
S'Mary McGovern'
p1212
ag3
aa(lp1213
S'Tannous Elias'
p1214
ag3
aa(lp1215
S'Mitto Denkoff'
p1216
ag12
aa(lp1217
S'Thor Anderson Olsvigen'
p1218
ag3
aa(lp1219
S'Arthur H Gee'
p1220
ag3
aa(lp1221
S'Masabumi Hosono'
p1222
ag3
aa(lp1223
S'Margaret Norton'
p1224
ag12
aa(lp1225
S'Bessie Waldo Daniels'
p1226
ag12
aa(lp1227
S'Juliette Marie Louise Lafargue'
p1228
ag12
aa(lp1229
S'Richard Leonard'
p1230
ag12
aa(lp1231
S'Katriina Jussila'
p1232
ag3
aa(lp1233
S'Edvard Bengtsson Lindell'
p1234
ag3
aa(lp1235
S'Frank John Goldsmith'
p1236
ag3
aa(lp1237
S'Leila Saks'
p1238
ag12
aa(lp1239
S'Sidney'
p1240
ag3
aa(lp1241
S'George Quincy Clifford'
p1242
ag3
aa(lp1243
S'Hans Peder Jensen'
p1244
ag12
aa(lp1245
S'Karl Siegwart Andreas Olsen'
p1246
ag12
aa(lp1247
S'Katie Peters'
p1248
ag3
aa(lp1249
S'John Jacob'
p1250
ag12
aa(lp1251
S'Ingvald Olai Olsen Hagland'
p1252
ag12
aa(lp1253
S'John Morgan Jr Davies'
p1254
ag3
aa(lp1255
S'Olof Svensson'
p1256
ag3
aa(lp1257
S'Iisakki Antino Aijo Nirva'
p1258
ag3
aa(lp1259
S"Bridget O'Driscoll"
p1260
ag3
aa(lp1261
S'Matti Alexanteri Maenpaa'
p1262
ag3
aa(lp1263
S'Sigrid Elisabeth Andersson'
p1264
ag12
aa(lp1265
S'Harold Theodor Johnson'
p1266
ag3
aa(lp1267
S'Oskar Arvid Hedman'
p1268
ag3
aa(lp1269
S'Ivan Jalsevac'
p1270
ag12
aa(lp1271
S'Ernest Courtenay Carter'
p1272
ag3
aa(lp1273
S'Tido Rekic'
p1274
ag12
aa(lp1275
S'Edward H Wheadon'
p1276
ag12
aa(lp1277
S'Jessie Wills Leitch'
p1278
ag3
aa(lp1279
S'Mansouer Novel'
p1280
ag3
aa(lp1281
S'Mathilde Francoise Pede'
p1282
ag12
aa(lp1283
S'Jean Gertrude Hippach'
p1284
ag3
aa(lp1285
S'Adolf Mathias Nicolai Olsen Humblen'
p1286
ag3
aa(lp1287
S'Jane Anne Forby'
p1288
ag3
aa(lp1289
S'Jean Baptiste Van Impe'
p1290
ag3
aa(lp1291
S'"Mrs Harbeck"'
p1292
ag12
aa(lp1293
S'Mara Osman'
p1294
ag3
aa(lp1295
S'David Lishin'
p1296
ag3
aa(lp1297
S'Juho Tikkanen'
p1298
ag3
aa(lp1299
S'Juliet Cummins Wright'
p1300
ag3
aa(lp1301
S'Owen Harris Braund'
p1302
ag3
aa(lp1303
S'Elias Nicola-Yarred'
p1304
ag12
aa(lp1305
S'Jessie L'
p1306
ag3
aa(lp1307
S'Gerious Yousseff'
p1308
ag3
aa(lp1309
S'Edith Junkins'
p1310
ag3
aa(lp1311
S'"Philip Zenni"'
p1312
ag12
aa(lp1313
S'Harriet R Crosby'
p1314
ag12
aa(lp1315
S'Hudson Trevor Allison'
p1316
ag3
aa(lp1317
S'William Campbell'
p1318
ag3
aa(lp1319
S'Eugene Rice'
p1320
ag3
aa(lp1321
S'Leo Zimmerman'
p1322
ag3
aa(lp1323
S'Alfred Pain'
p1324
ag3
aa(lp1325
S'William Edward Minahan'
p1326
ag3
aa(lp1327
S'Anna Ward'
p1328
ag12
aa(lp1329
S'Michel'
p1330
ag3
aa(lp1331
S'Edward Gifford Crosby'
p1332
ag3
aa(lp1333
S'Milton Clyde Long'
p1334
ag12
aa(lp1335
S'John Denzil Jarvis'
p1336
ag3
aa(lp1337
S'William Arthur Lobb'
p1338
ag12
aa(lp1339
S'Catherine David'
p1340
ag3
aa(lp1341
S'Joan Wells'
p1342
ag3
aa(lp1343
S'George Nelson'
p1344
ag3
aa(lp1345
S'Eberhard Thelander Fischer'
p1346
ag3
aa(lp1347
S'Karl Howell Behr'
p1348
ag3
aa(lp1349
S'Walter Bertram'
p1350
ag12
aa(lp1351
S'Tannous Betros'
p1352
ag3
aa(lp1353
S'Norman Campbell'
p1354
ag3
aa(lp1355
S'Telma Matilda Strom'
p1356
ag3
aa(lp1357
S'John Bradley'
p1358
ag12
aa(lp1359
S'Marjorie Newell'
p1360
ag3
aa(lp1361
S'Petco Slabenoff'
p1362
ag3
aa(lp1363
S'Alice Phoebe Harknett'
p1364
ag3
aa(lp1365
S'Ole Martin Olsen'
p1366
ag12
aa(lp1367
S'Karl Ivar Sven Berglund'
p1368
ag12
aa(lp1369
S'Henry Jr Sutehall'
p1370
ag3
aa(lp1371
S'Emily Hocking'
p1372
ag3
aa(lp1373
S'Klas Albin Klasen'
p1374
ag12
aa(lp1375
S'Mary Kelly'
p1376
ag3
aa(lp1377
S'Henry Damsgaard Hansen'
p1378
ag3
aa(lp1379
S'Jeso Culumovic'
p1380
ag3
aa(lp1381
S'John Irwin'
p1382
ag12
aa(lp1383
S'Rahamin Haim Moutal'
p1384
ag3
aa(lp1385
S'Max Stahelin-Maeglin'
p1386
ag3
aa(lp1387
S'John Harper'
p1388
ag12
aa(lp1389
S'Jacques Heath Futrelle'
p1390
ag3
aa(lp1391
S'Frederick R'
p1392
ag3
aa(lp1393
S'Marija Cacic'
p1394
ag12
aa(lp1395
S'Henry Price Hodges'
p1396
ag3
aa(lp1397
S'John Bourke'
p1398
ag3
aa(lp1399
S'Samuel James Hayden Sobey'
p1400
ag3
aa(lp1401
S'Houssein G N Hassan'
p1402
ag3
aa(lp1403
S'Lalio Jonkoff'
p1404
ag3
aa(lp1405
S'Elizabeth Ramell'
p1406
ag12
aa(lp1407
S'Uscher Paulner'
p1408
ag12
aa(lp1409
S'Jane Laver'
p1410
ag12
aa(lp1411
S'Charlotte Lamson'
p1412
ag12
aa(lp1413
S'Ernest James Crease'
p1414
ag3
aa(lp1415
S'Thamine Zabour'
p1416
ag12
aa(lp1417
S'Edwina Celia "Winnie" Troutt'
p1418
ag3
aa(lp1419
S'James Moran'
p1420
ag12
aa(lp1421
S'Matilda Petranec'
p1422
ag3
aa(lp1423
S'Alice Herman'
p1424
ag3
aa(lp1425
S'Benjamin Guggenheim'
p1426
ag3
aa(lp1427
S'William Henry Saundercock'
p1428
ag12
aa(lp1429
S'Ellen "Nellie" Barber'
p1430
ag12
aa(lp1431
S'Encarnacion Reynaldo'
p1432
ag3
aa(lp1433
S'Lily May Peel'
p1434
ag3
aa(lp1435
S'Achille Waelens'
p1436
ag3
aa(lp1437
S'Benjamin Laventall Foreman'
p1438
ag12
aa(lp1439
S'Frank Manley'
p1440
ag3
aa(lp1441
S'Martha Eustis'
p1442
ag12
aa(lp1443
S'Selini Alexander'
p1444
ag3
aa(lp1445
S'Austen Partner'
p1446
ag3
aa(lp1447
S'Katherine "Kate" Murphy'
p1448
ag3
aa(lp1449
S'Doolina Margaret "Daisy" Ford'
p1450
ag12
aa(lp1451
S'Thomas Henry'
p1452
ag3
aa(lp1453
S'Antoni'
p1454
ag3
aa(lp1455
S'Alexander A'
p1456
ag3
aa(lp1457
S'John Hall'
p1458
ag3
aa(lp1459
S'Alice'
p1460
ag3
aa(lp1461
S'Charles Edward Goodwin'
p1462
ag12
aa(lp1463
S'Frederick James Banfield'
p1464
ag12
aa(lp1465
S'Edward Austin Kent'
p1466
ag3
aa(lp1467
S'George Henry Hunt'
p1468
ag3
aa(lp1469
S'James Webber'
p1470
ag3
aa(lp1471
S'Ramon Artagaveytia'
p1472
ag12
aa(lp1473
S'Helen "Ellen" Carr'
p1474
ag3
aa(lp1475
S'Margaret Tobin'
p1476
ag12
aa(lp1477
S'Vera Gillespie'
p1478
ag12
aa(lp1479
S'Jan Baptist Sheerlinck'
p1480
ag3
aa(lp1481
S'Rene Pernot'
p1482
ag3
aa(lp1483
S'Penko Naidenoff'
p1484
ag3
aa(lp1485
S'Stephen Hold'
p1486
ag3
aa(lp1487
S'Adola Asim'
p1488
ag12
aa(lp1489
S'Bertha LeRoy'
p1490
ag3
aa(lp1491
S'Victor Giglio'
p1492
ag12
aa(lp1493
S'Anna Kristine Salkjelsvik'
p1494
ag12
aa(lp1495
S'John William Gill'
p1496
ag3
aa(lp1497
S'Hanora "Norah" O\'Leary'
p1498
ag12
aa(lp1499
S'Irene Wallach'
p1500
ag12
aa(lp1501
S'Ernest Moraweck'
p1502
ag3
aa(lp1503
S'Margareth Mannion'
p1504
ag3
aa(lp1505
S'Lucy Ridsdale'
p1506
ag3
aa(lp1507
S'Wyckoff Van der hoef'
p1508
ag12
aa(lp1509
S'Reginald Hale'
p1510
ag12
aa(lp1511
S'Juha Niskanen'
p1512
ag3
aa(lp1513
S'Joseph J Fynney'
p1514
ag3
aa(lp1515
S'Thomas Joseph McCormack'
p1516
ag3
aa(lp1517
S'Elisabeth Walton McMillan'
p1518
ag3
aa(lp1519
S'Frederick Charles'
p1520
ag3
aa(lp1521
S'Ernst Ulrik Persson'
p1522
ag12
aa(lp1523
S'Frederick William Pengelly'
p1524
ag12
aa(lp1525
S'Peter Henry'
p1526
ag12
aa(lp1527
S'Bertha Griggs'
p1528
ag12
aa(lp1529
S'Annie Jermyn'
p1530
ag3
aa(lp1531
S'Nils August Karlsson'
p1532
ag3
aa(lp1533
S'Sidney Leonard Goodwin'
p1534
ag12
aa(lp1535
S'Minko Nankoff'
p1536
ag3
aa(lp1537
S'Nicholas'
p1538
ag12
aa(lp1539
S'Julie Rachel Christy'
p1540
ag12
aa(lp1541
S'George Patchett'
p1542
ag3
aa(lp1543
S'Alfrida Konstantia Brogren'
p1544
ag3
aa(lp1545
S"Bridget Mary O'Sullivan"
p1546
ag3
aa(lp1547
S'Myna Haxtun'
p1548
ag12
aa(lp1549
S'Rossmore Edward Abbott'
p1550
ag3
aa(lp1551
S'William Thomas Beavan'
p1552
ag12
aa(lp1553
S'Nikolai Erland Kallio'
p1554
ag12
aa(lp1555
S'Mile Smiljanic'
p1556
ag3
aa(lp1557
S'Marian Longstreth Morris'
p1558
ag3
aa(lp1559
S'Walter Harris'
p1560
ag12
aa(lp1561
S'Herbert Fuller Chaffee'
p1562
ag3
aa(lp1563
S'Helen Mary "Ellie" Mockler'
p1564
ag3
aa(lp1565
S'Rene Aime Lievens'
p1566
ag3
aa(lp1567
S'Florence Briggs Thayer'
p1568
ag3
aa(lp1569
S'Mary Aline Towner'
p1570
ag3
aa(lp1571
S'Francis William Somerton'
p1572
ag3
aa(lp1573
S'Amin S'
p1574
ag3
aa(lp1575
S'Bertram Vere Dean'
p1576
ag3
aa(lp1577
S'Fridtjof Arne Madsen'
p1578
ag3
aa(lp1579
S'Karl Johan Johansson'
p1580
ag12
aa(lp1581
S'Edward Beane'
p1582
ag3
aa(lp1583
S'Robert James Bateman'
p1584
ag3
aa(lp1585
S'James Vivian'
p1586
ag12
aa(lp1587
S'James'
p1588
ag12
aa(lp1589
S'Susan Webber'
p1590
ag3
aa(lp1591
S'Arthur Godfrey Peuchen'
p1592
ag3
aa(lp1593
S'William Thompson Sloper'
p1594
ag3
aa(lp1595
S'Elsie Doling'
p1596
ag12
aa(lp1597
S'Percival Wayland White'
p1598
ag3
aa(lp1599
S'Solomon'
p1600
ag3
aa(lp1601
S'Douglas Bullen Sage'
p1602
ag12
aa(lp1603
S'Luka Oreskovic'
p1604
ag12
aa(lp1605
S'Julian Padro y Manent'
p1606
ag3
aa(lp1607
S'Fletcher Fellows Williams-Lambert'
p1608
ag3
aa(lp1609
S'Owen George Allum'
p1610
ag3
aa(lp1611
S'Marion Louise Becker'
p1612
ag12
aa(lp1613
S'Beila'
p1614
ag12
aa(lp1615
S'Herman Klaber'
p1616
ag12
aa(lp1617
S'Sultana'
p1618
ag3
aa(lp1619
S'Jakob Alfred Johanson'
p1620
ag12
aa(lp1621
S'William Loch "William" Coutts'
p1622
ag12
aa(lp1623
S'Sebastiano del Carlo'
p1624
ag3
aa(lp1625
S'William Thompson'
p1626
ag12
aa(lp1627
S'Alice Elizabeth Fortune'
p1628
ag3
aa(lp1629
S'Thomas William Solomon'
p1630
ag12
aa(lp1631
S'Erik Gustaf Collander'
p1632
ag3
aa(lp1633
S'Jozef Drazenoic'
p1634
ag12
aa(lp1635
S'Arthur Ernest Nicholson'
p1636
ag12
aa(lp1637
S'Ernst William Torber'
p1638
ag3
aa(lp1639
S'Charles Alexander Fortune'
p1640
ag12
aa(lp1641
S'Banoura Ayoub'
p1642
ag3
aa(lp1643
S'Aloisia Haas'
p1644
ag12
aa(lp1645
S'Engelhart Cornelius Ostby'
p1646
ag12
aa(lp1647
S'William Thornton II Carter'
p1648
ag3
aa(lp1649
S'William John Rogers'
p1650
ag3
aa(lp1651
S'Sylvia Mae Harbaugh'
p1652
ag3
aa(lp1653
S'John Fredrik Alexander Holm'
p1654
ag3
aa(lp1655
S'Ivan Mineff'
p1656
ag12
aa(lp1657
S'Lalio Todoroff'
p1658
ag12
aa(lp1659
S'Alice Cleaver'
p1660
ag3
aa(lp1661
S'Mary'
p1662
ag3
aa(lp1663
S'Johann Markun'
p1664
ag12
aa(lp1665
S'Gerda Ulrika Dahlberg'
p1666
ag3
aa(lp1667
S'Apostolos Chronopoulos'
p1668
ag3
aa(lp1669
S'Philip Kiernan'
p1670
ag3
aa(lp1671
S'Amin Saad'
p1672
ag3
aa(lp1673
S'Gosta Leonard Palsson'
p1674
ag12
aa(lp1675
S'William Neal Ford'
p1676
ag3
aa(lp1677
S'Oberst Alfons Simonius-Blumer'
p1678
ag12
aa(lp1679
S'Brigdet Delia McDermott'
p1680
ag3
aa(lp1681
S'Stanley Hubert Fox'
p1682
ag3
aa(lp1683
S'Sallie Monypeny'
p1684
ag3
aa(lp1685
S'James Clinch Smith'
p1686
ag12
aa(lp1687
S'William Morley'
p1688
ag3
aa(lp1689
S'Erik Johansson'
p1690
ag12
aa(lp1691
S'Margaret Jane Murphy'
p1692
ag12
aa(lp1693
S'Charles Alexander'
p1694
ag3
aa(lp1695
S'Hjalmar'
p1696
ag3
aa(lp1697
S'Pieta Sofia Ilmakangas'
p1698
ag3
aa(lp1699
S'Grace Charity Laury'
p1700
ag3
aa(lp1701
S'Augusta Charlotta Lindblom'
p1702
ag3
aa(lp1703
S'Juho Stranden'
p1704
ag3
aa(lp1705
S'Elizabeth "Bessie" Inglis Milne'
p1706
ag12
aa(lp1707
S'Eva Miriam Hart'
p1708
ag12
aa(lp1709
S'William Bertram Greenfield'
p1710
ag3
aa(lp1711
S'William A'
p1712
ag3
aa(lp1713
S'Ada E Hall'
p1714
ag12
aa(lp1715
S'William H'
p1716
ag3
aa(lp1717
S'Samuel Abelson'
p1718
ag3
aa(lp1719
S'Ernst Adolf Sjostedt'
p1720
ag12
aa(lp1721
S'Maria Mathilda Gustafsson'
p1722
ag12
aa(lp1723
S'Elizabeth W Shutes'
p1724
ag12
aa(lp1725
S'Ernest Courtenay'
p1726
ag12
aa(lp1727
S'Thomas Rowan Morrow'
p1728
ag3
aa(lp1729
S'Anna "Annie" McGowan'
p1730
ag3
aa(lp1731
S'Lee Ling'
p1732
ag12
aa(lp1733
S'Hanora "Nora" Hegarty'
p1734
ag3
aa(lp1735
S'Harald Skoog'
p1736
ag12
aa(lp1737
S'Margit Elizabeth Skoog'
p1738
ag3
aa(lp1739
S'Karolina'
p1740
ag3
aa(lp1741
S'Albert Francis'
p1742
ag3
aa(lp1743
S'Guentcho Bostandyeff'
p1744
ag12
aa(lp1745
S'Nils Johan Goransson Olsson'
p1746
ag3
aa(lp1747
S'Bertha Moran'
p1748
ag12
aa(lp1749
S'Martin Ponesell'
p1750
ag3
aa(lp1751
S'Timothy J McCarthy'
p1752
ag3
aa(lp1753
S'Anna Sofia Nysten'
p1754
ag3
aa(lp1755
S'Lee Bing'
p1756
ag3
aa(lp1757
S'Emile Richard'
p1758
ag3
aa(lp1759
S'Richard James Slemen'
p1760
ag3
aa(lp1761
S'Bertha Ilett'
p1762
ag3
aa(lp1763
S'Maurice Sirota'
p1764
ag3
aa(lp1765
S'Carl Olof Jansson'
p1766
ag3
aa(lp1767
S'William Thomas Stead'
p1768
ag3
aa(lp1769
S'Margaret Delia Devaney'
p1770
ag12
aa(lp1771
S'Johan Svensson'
p1772
ag3
aa(lp1773
S'"Mrs de Villiers"'
p1774
ag12
aa(lp1775
S'John Borland'
p1776
ag3
aa(lp1777
S'Henry Hart'
p1778
ag12
aa(lp1779
S'Martha Evelyn'
p1780
ag12
aa(lp1781
S'Agnes Charlotta Bengtsson'
p1782
ag12
aa(lp1783
S'"Wennerstrom"'
p1784
ag3
aa(lp1785
S'"Henry"'
p1786
ag12
aa(lp1787
S'Walter Chamberlain Porter'
p1788
ag3
aa(lp1789
S'Charles H Harrington'
p1790
ag3
aa(lp1791
S'Ernest Portage Tomlin'
p1792
ag3
aa(lp1793
S'Emma Sagesser'
p1794
ag12
aa(lp1795
S'Annie Louise Rowley'
p1796
ag3
aa(lp1797
S'William Augustus'
p1798
ag3
aa(lp1799
S'Einar Windelov'
p1800
ag3
aa(lp1801
S'Alice Munger'
p1802
ag3
aa(lp1803
S'David Reeves'
p1804
ag12
aa(lp1805
S'Matthew Sadlier'
p1806
ag12
aa(lp1807
S'John D Baumann'
p1808
ag12
aa(lp1809
S'Edward Willey'
p1810
ag12
aa(lp1811
S'Catharina Van Impe'
p1812
ag3
aa(lp1813
S'Alfons de Pelsmaeker'
p1814
ag3
aa(lp1815
S'James Robert McGough'
p1816
ag3
aa(lp1817
S'Daniel Warner Marvin'
p1818
ag3
aa(lp1819
S'August Meyer'
p1820
ag3
aa(lp1821
S'Raihed Razi'
p1822
ag12
aa(lp1823
S'Bengt Edvin Larsson'
p1824
ag3
aa(lp1825
S'Eiriik Jussila'
p1826
ag3
aa(lp1827
S'Josef Arnold-Franchi'
p1828
ag3
aa(lp1829
S'Reginald Charles Coleridge'
p1830
ag3
aa(lp1831
S'Sarkis Lahoud'
p1832
ag3
aa(lp1833
S'Edwiga Grabowska'
p1834
ag3
aa(lp1835
S'Albert Augustsson'
p1836
ag3
aa(lp1837
S'Ruth Taussig'
p1838
ag12
aa(lp1839
S'William Rowe Richards'
p1840
ag12
aa(lp1841
S'Aurora Adelia Landergren'
p1842
ag12
aa(lp1843
S'Virginia Ethel Emanuel'
p1844
ag3
aa(lp1845
S'Svend Lauritz Jensen'
p1846
ag12
aa(lp1847
S'Harry'
p1848
ag12
aa(lp1849
S'Frank John'
p1850
ag3
aa(lp1851
S'Samuel Greenberg'
p1852
ag12
aa(lp1853
S'Francesco Celotti'
p1854
ag12
aa(lp1855
S'George Harris'
p1856
ag3
aa(lp1857
S'Hulda Amanda Adolfina Vestrom'
p1858
ag3
aa(lp1859
S'Theodor Kraeff'
p1860
ag3
aa(lp1861
S'Lutie Davis'
p1862
ag3
aa(lp1863
S'Jovan Dimic'
p1864
ag3
aa(lp1865
S'Stephen Weart Blackwell'
p1866
ag3
aa(lp1867
S'William John Berriman'
p1868
ag12
aa(lp1869
S'Daniel Coxon'
p1870
ag3
aa(lp1871
S'James H Bracken'
p1872
ag3
aa(lp1873
S'Guillaume Joseph'
p1874
ag12
aa(lp1875
S'Anna Sophia Atkinson'
p1876
ag3
aa(lp1877
S'Leon Hampe'
p1878
ag12
aa(lp1879
S'Carl/Charles Peter Widegren'
p1880
ag3
aa(lp1881
S'George Sibley Richards'
p1882
ag3
aa(lp1883
S'Emily Rugg'
p1884
ag12
aa(lp1885
S'Viktor Richard Rosblom'
p1886
ag3
aa(lp1887
S'Darwis'
p1888
ag3
aa(lp1889
S'Simonne Marie Anne Andree Laroche'
p1890
ag3
aa(lp1891
S'Charles H Natsch'
p1892
ag3
aa(lp1893
S'Hanna Assi Barah'
p1894
ag3
aa(lp1895
S'Peter David McKane'
p1896
ag3
aa(lp1897
S'Annie Clemmer Funk'
p1898
ag3
aa(lp1899
S'George Wright'
p1900
ag3
aa(lp1901
S'Manuel Estanslas Goncalves'
p1902
ag3
aa(lp1903
S'Edward'
p1904
ag12
aa(lp1905
S'Nikola Lulic'
p1906
ag12
aa(lp1907
S'Marion Ogden'
p1908
ag3
aa(lp1909
S'Tannous Doharr'
p1910
ag12
aa(lp1911
S'Alexander Cairns'
p1912
ag3
aa(lp1913
S'Edward Pennington Calderhead'
p1914
ag3
aa(lp1915
S'Helmina Josefina Nilsson'
p1916
ag12
aa(lp1917
S'Kate Florence'
p1918
ag3
aa(lp1919
S'Marija Oreskovic'
p1920
ag3
aa(lp1921
S'Percival Thorneycroft'
p1922
ag3
aa(lp1923
S'Alfred Gaskell'
p1924
ag3
aa(lp1925
S'Choong Foo'
p1926
ag3
aa(lp1927
S'James Farrell'
p1928
ag3
aa(lp1929
S'"William George"'
p1930
ag3
aa(lp1931
S'Thomas Leonard Theobald'
p1932
ag3
aa(lp1933
S'Robert William Norman Leyson'
p1934
ag12
aa(lp1935
S'Samuel L'
p1936
ag12
aa(lp1937
S'Leo Peter Vanden Steen'
p1938
ag3
aa(lp1939
S'Lillian Jefferys'
p1940
ag3
aa(lp1941
S'Hans Linus Eklund'
p1942
ag3
aa(lp1943
S'Maria'
p1944
ag3
aa(lp1945
S'Harry Elkins Widener'
p1946
ag12
aa(lp1947
S'Joseph Murdlin'
p1948
ag12
aa(lp1949
S'Johan Hansen Nysveen'
p1950
ag3
aa(lp1951
S'John Montgomery Smart'
p1952
ag3
aa(lp1953
S'Rosa Hunt'
p1954
ag3
aa(lp1955
S'Julius'
p1956
ag12
aa(lp1957
S'Michael Connaghton'
p1958
ag3
aa(lp1959
S'Madeleine Newell'
p1960
ag3
aa(lp1961
S'Arthur Webster Newell'
p1962
ag3
aa(lp1963
S'Ambrose Jr Hood'
p1964
ag3
aa(lp1965
S'Anna Andrews'
p1966
ag3
aa(lp1967
S'Peju Coleff'
p1968
ag12
aa(lp1969
S'Edwin Nelson Jr Kimball'
p1970
ag3
aa(lp1971
S'Nicholas Nasser'
p1972
ag3
aa(lp1973
S'Frederic Kimber Seward'
p1974
ag3
aa(lp1975
S'Elizabeth'
p1976
ag3
aa(lp1977
S'Hannah Wizosky'
p1978
ag3
aa(lp1979
S'Robert Williams Daniel'
p1980
ag3
aa(lp1981
S'Carl Jonsson'
p1982
ag3
aa(lp1983
S'"Irving"'
p1984
ag12
aa(lp1985
S'Edmond Roger Navratil'
p1986
ag3
aa(lp1987
S'Charles Eugene Williams'
p1988
ag3
aa(lp1989
S'David John "Dai" Bowen'
p1990
ag3
aa(lp1991
S'Karl Alfred'
p1992
ag12
aa(lp1993
S'Mary Davis'
p1994
ag3
aa(lp1995
S'Claus Peter Hansen'
p1996
ag3
aa(lp1997
S'Ada Julia Bone'
p1998
ag3
aa(lp1999
S'Walter James Hawksford'
p2000
ag12
aa(lp2001
S'Alexander Oskar Holverson'
p2002
ag12
aa(lp2003
S'Len Lam'
p2004
ag12
aa(lp2005
S'William John Matthews'
p2006
ag3
aa(lp2007
S'Nakli Toufik'
p2008
ag12
aa(lp2009
S'Christo Nenkoff'
p2010
ag12
aa(lp2011
S'Charlotte Annie Tate'
p2012
ag3
aa(lp2013
S'Theodore de Mulder'
p2014
ag3
aa(lp2015
VJennifer Miller
p2016
ag12
aa(lp2017
VKevin Wilson
p2018
ag3
aa(lp2019
VKaylee Roberson
p2020
ag3
aa(lp2021
VMelvin Thompson
p2022
ag3
aa(lp2023
VJoshua Fleming
p2024
ag3
aa(lp2025
VMonique Jenkins
p2026
ag3
aa(lp2027
VChristian Smith
p2028
ag3
aa(lp2029
VDonald Russo
p2030
ag3
aa(lp2031
VEric Williams
p2032
ag3
aa(lp2033
VRachael Stone
p2034
ag3
aa(lp2035
VSean Larsen
p2036
ag3
aa(lp2037
VIan Flynn
p2038
ag3
aa(lp2039
VAnna Yu
p2040
ag3
aa(lp2041
VLinda Huerta
p2042
ag3
aa(lp2043
VJohn Thomas
p2044
ag3
aa(lp2045
VAngel Foster
p2046
ag3
aa(lp2047
VJessica Gordon
p2048
ag12
aa(lp2049
VDr. Charles Chase
p2050
ag3
aa(lp2051
VGina Bowman
p2052
ag3
aa(lp2053
VSarah Lopez
p2054
ag3
aa(lp2055
VStephanie Murphy MD
p2056
ag3
aa(lp2057
VJuan Davidson
p2058
ag3
aa(lp2059
VCharles Roman
p2060
ag3
aa(lp2061
VJonathan Campbell
p2062
ag3
aa(lp2063
VSarah Hinton
p2064
ag3
aa(lp2065
VKenneth Duffy
p2066
ag3
aa(lp2067
VChristopher Vaughn
p2068
ag12
aa(lp2069
VApril Thomas
p2070
ag3
aa(lp2071
VAmy Hicks
p2072
ag12
aa(lp2073
VJustin Martin
p2074
ag12
aa(lp2075
VTiffany Mckee
p2076
ag3
aa(lp2077
VThomas Wood
p2078
ag3
aa(lp2079
VAmanda Morris
p2080
ag3
aa(lp2081
VKristin Williams
p2082
ag3
aa(lp2083
VWilliam Morgan
p2084
ag3
aa(lp2085
VMeredith Scott
p2086
ag3
aa(lp2087
VJennifer Russell
p2088
ag3
aa(lp2089
VNicole Macias
p2090
ag3
aa(lp2091
VJustin Morrow
p2092
ag3
aa(lp2093
VNicholas Flowers
p2094
ag3
aa(lp2095
VDavid Johnson
p2096
ag3
aa(lp2097
VStephanie Jones
p2098
ag3
aa(lp2099
VJudith Sanders
p2100
ag3
aa(lp2101
VSteven Phillips
p2102
ag3
aa(lp2103
VNathan King
p2104
ag12
aa(lp2105
VJon Reed
p2106
ag3
aa(lp2107
VAmanda Nelson
p2108
ag3
aa(lp2109
VBrandon Obrien
p2110
ag3
aa(lp2111
VMichael Harding
p2112
ag3
aa(lp2113
VShelby Scott
p2114
ag12
aa(lp2115
VJose Williams
p2116
ag3
aa(lp2117
VElizabeth Harrison
p2118
ag12
aa(lp2119
VLynn Ward
p2120
ag3
aa(lp2121
VWilliam Knapp
p2122
ag3
aa(lp2123
VChristina Watson
p2124
ag3
aa(lp2125
VVanessa Hancock
p2126
ag3
aa(lp2127
VMichael Alvarez
p2128
ag3
aa(lp2129
VDanielle Perez
p2130
ag3
aa(lp2131
VJohn Gross
p2132
ag3
aa(lp2133
VMonica Woodward
p2134
ag3
aa(lp2135
VTonya Walsh
p2136
ag3
aa(lp2137
VDavid Sutton
p2138
ag3
aa(lp2139
VBrittany Shea
p2140
ag3
aa(lp2141
VTeresa Adams
p2142
ag3
aa(lp2143
VCynthia Gallegos
p2144
ag3
aa(lp2145
VDylan White
p2146
ag3
aa(lp2147
VLori Miller
p2148
ag3
aa(lp2149
VChristopher Rojas
p2150
ag3
aa(lp2151
VAlejandro Bowen
p2152
ag3
aa(lp2153
VAndrea Butler
p2154
ag3
aa(lp2155
VDorothy Callahan
p2156
ag3
aa(lp2157
VJanice Blair MD
p2158
ag3
aa(lp2159
VJohn Crawford
p2160
ag3
aa(lp2161
VJamie Luna
p2162
ag3
aa(lp2163
VValerie Harris
p2164
ag12
aa(lp2165
VJason Cook
p2166
ag3
aa(lp2167
VErica Frederick
p2168
ag12
aa(lp2169
VAmy Lindsey
p2170
ag3
aa(lp2171
VJeffrey Curtis
p2172
ag3
aa(lp2173
VAlejandro Cook
p2174
ag3
aa(lp2175
VLeslie Reyes
p2176
ag3
aa(lp2177
VDavid Hernandez
p2178
ag3
aa(lp2179
VMr. Jeffrey Wright IV
p2180
ag3
aa(lp2181
VJennifer Brown DVM
p2182
ag3
aa(lp2183
VSteven Flores
p2184
ag3
aa(lp2185
VRebecca Murphy
p2186
ag3
aa(lp2187
VNicholas Allen
p2188
ag3
aa(lp2189
VChristopher Zuniga
p2190
ag3
aa(lp2191
VChristina Carroll
p2192
ag3
aa(lp2193
VAaron Contreras
p2194
ag3
aa(lp2195
VSamuel Morris
p2196
ag3
aa(lp2197
VMr. Russell Donovan
p2198
ag3
aa(lp2199
VRebekah Owen
p2200
ag3
aa(lp2201
VSusan Fields
p2202
ag3
aa(lp2203
VHeather Donovan
p2204
ag3
aa(lp2205
VMrs. Laura Turner
p2206
ag3
aa(lp2207
VDiane Proctor
p2208
ag3
aa(lp2209
VSteven Castillo
p2210
ag3
aa(lp2211
VMatthew Gonzalez
p2212
ag3
aa(lp2213
VKylie Barron
p2214
ag3
aa(lp2215
VEileen Marshall
p2216
ag12
aa(lp2217
VThomas Frye
p2218
ag3
aa(lp2219
VStacey Wall
p2220
ag3
aa(lp2221
VMichael Bartlett
p2222
ag12
aa(lp2223
VTeresa Scott
p2224
ag3
aa(lp2225
VLisa Montgomery
p2226
ag3
aa(lp2227
VJamie Page
p2228
ag3
aa(lp2229
VDakota Munoz
p2230
ag3
aa(lp2231
VTommy Evans
p2232
ag3
aa(lp2233
VMegan Williams
p2234
ag3
aa(lp2235
VDavid Jacobs
p2236
ag3
aa(lp2237
VCrystal Warner
p2238
ag3
aa(lp2239
VErin Vaughn
p2240
ag3
aa(lp2241
VPaul Evans
p2242
ag3
aa(lp2243
VBrandon Gates
p2244
ag3
aa(lp2245
VAbigail Cruz
p2246
ag3
aa(lp2247
VLisa Jones
p2248
ag3
aa(lp2249
VAndrew Mills
p2250
ag3
aa(lp2251
VKristin Conrad
p2252
ag3
aa(lp2253
VDavid Roberts
p2254
ag3
aa(lp2255
VChristina Farrell
p2256
ag12
aa(lp2257
VSamantha Williams
p2258
ag3
aa(lp2259
VPatrick Ochoa
p2260
ag12
aa(lp2261
VLaura Harrison
p2262
ag3
aa(lp2263
VSarah Watson
p2264
ag3
aa(lp2265
VWesley Mckee
p2266
ag3
aa(lp2267
VMatthew Hawkins
p2268
ag3
aa(lp2269
VIvan Banks
p2270
ag3
aa(lp2271
VCynthia Booker
p2272
ag3
aa(lp2273
VMrs. Linda Clark MD
p2274
ag3
aa(lp2275
VJeffrey Luna
p2276
ag3
aa(lp2277
VMr. Troy Smith PhD
p2278
ag3
aa(lp2279
VDebbie Wise
p2280
ag12
aa(lp2281
VIan Wyatt
p2282
ag3
aa(lp2283
VRobert Ward
p2284
ag3
aa(lp2285
VChristian Cobb
p2286
ag3
aa(lp2287
VJames Baxter
p2288
ag3
aa(lp2289
VAngela Reyes
p2290
ag3
aa(lp2291
VTerri Cox
p2292
ag3
aa(lp2293
VTara Coleman
p2294
ag3
aa(lp2295
VMonique Flores
p2296
ag3
aa(lp2297
VPatrick Wallace
p2298
ag3
aa(lp2299
VCheryl Gilbert
p2300
ag3
aa(lp2301
VDestiny Watson
p2302
ag3
aa(lp2303
VTiffany Gray
p2304
ag3
aa(lp2305
VTeresa Wagner
p2306
ag3
aa(lp2307
VElijah Davidson
p2308
ag3
aa(lp2309
VEmma Evans
p2310
ag12
aa(lp2311
VMegan Reid
p2312
ag3
aa(lp2313
VStephen Johns
p2314
ag3
aa(lp2315
VMatthew Johnson
p2316
ag3
aa(lp2317
VMark White
p2318
ag3
aa(lp2319
VJustin Calhoun
p2320
ag3
aa(lp2321
VSusan Vasquez
p2322
ag3
aa(lp2323
VGabriel Miller
p2324
ag3
aa(lp2325
VJacob Mcknight
p2326
ag3
aa(lp2327
VTyler Rice
p2328
ag3
aa(lp2329
VBrittney Barnes
p2330
ag3
aa(lp2331
VChristopher Lewis
p2332
ag3
aa(lp2333
VTammy Waller
p2334
ag12
aa(lp2335
VMarcus Barnett
p2336
ag12
aa(lp2337
VHolly Fowler
p2338
ag3
aa(lp2339
VBrandon Caldwell
p2340
ag3
aa(lp2341
VAndrew Smith
p2342
ag3
aa(lp2343
VToni Gray
p2344
ag3
aa(lp2345
VMicheal Garcia
p2346
ag3
aa(lp2347
VDonald Stein
p2348
ag3
aa(lp2349
VJustin Murphy
p2350
ag3
aa(lp2351
VRobert Lutz
p2352
ag3
aa(lp2353
VScott Williams
p2354
ag3
aa(lp2355
VSharon Thompson
p2356
ag3
aa(lp2357
VKimberly Evans
p2358
ag3
aa(lp2359
VDr. Mary Sanders MD
p2360
ag3
aa(lp2361
VTimothy Hunter
p2362
ag3
aa(lp2363
VKristin Brown
p2364
ag3
aa(lp2365
VNathan Scott
p2366
ag3
aa(lp2367
VJennifer Brown
p2368
ag3
aa(lp2369
VJoshua Estes
p2370
ag3
aa(lp2371
VAlan Bartlett
p2372
ag3
aa(lp2373
VAmy Taylor
p2374
ag3
aa(lp2375
VKaren Baker
p2376
ag12
aa(lp2377
VJessica Harvey
p2378
ag3
aa(lp2379
VJessica Lambert
p2380
ag3
aa(lp2381
VPatrick Barnes
p2382
ag3
aa(lp2383
VJoseph Chavez
p2384
ag3
aa(lp2385
VJamie Choi
p2386
ag3
aa(lp2387
VWilliam Henderson
p2388
ag3
aa(lp2389
VLori Williams
p2390
ag3
aa(lp2391
VAndre Sheppard
p2392
ag3
aa(lp2393
VEdward Jackson
p2394
ag3
aa(lp2395
VDenise Warner MD
p2396
ag3
aa(lp2397
VDeborah Jordan
p2398
ag3
aa(lp2399
VDavid Hubbard
p2400
ag3
aa(lp2401
VMr. Joshua Tate
p2402
ag12
aa(lp2403
VMichael Brown
p2404
ag3
aa(lp2405
VDylan Kelly
p2406
ag3
aa(lp2407
VDavid Washington
p2408
ag3
aa(lp2409
VArthur Sims MD
p2410
ag3
aa(lp2411
VChristian Miller
p2412
ag3
aa(lp2413
VNicole Owens
p2414
ag3
aa(lp2415
VAngela Berry
p2416
ag3
aa(lp2417
VAntonio Jones
p2418
ag3
aa(lp2419
VJoshua Walker
p2420
ag3
aa(lp2421
VRussell Carter
p2422
ag3
aa(lp2423
VBarbara Goodwin
p2424
ag3
aa(lp2425
VBrittany David
p2426
ag3
aa(lp2427
VThomas Brown
p2428
ag3
aa(lp2429
VPeter Blankenship
p2430
ag12
aa(lp2431
VJoseph Fitzgerald
p2432
ag3
aa(lp2433
VJennifer Pacheco
p2434
ag12
aa(lp2435
VDr. Kevin Craig II
p2436
ag12
aa(lp2437
VCassandra Jackson
p2438
ag3
aa(lp2439
VJay Baker
p2440
ag3
aa(lp2441
VStacy Gomez
p2442
ag12
aa(lp2443
VBenjamin Young
p2444
ag3
aa(lp2445
VPhillip Russo
p2446
ag12
aa(lp2447
VJames Holloway
p2448
ag3
aa(lp2449
VCalvin Mays
p2450
ag3
aa(lp2451
VJohn Jimenez
p2452
ag12
aa(lp2453
VPatricia Thornton
p2454
ag12
aa(lp2455
VSarah Espinoza
p2456
ag3
aa(lp2457
VTimothy Underwood
p2458
ag3
aa(lp2459
VJulia Lam
p2460
ag3
aa(lp2461
VTina Mosley
p2462
ag3
aa(lp2463
VDiana Parks
p2464
ag3
aa(lp2465
VSophia Williams
p2466
ag3
aa(lp2467
VKimberly Brown
p2468
ag3
aa(lp2469
VDaniel Martinez
p2470
ag3
aa(lp2471
VNicole Thomas
p2472
ag3
aa(lp2473
VAngela Barnett
p2474
ag12
aa(lp2475
VCarrie Scott
p2476
ag3
aa(lp2477
VStacey Stone
p2478
ag3
aa(lp2479
VDonna Goodman
p2480
ag3
aa(lp2481
VAnthony Gray
p2482
ag3
aa(lp2483
VJoseph Garcia
p2484
ag3
aa(lp2485
VAndrew Martinez
p2486
ag3
aa(lp2487
VKristina Novak
p2488
ag3
aa(lp2489
VShelly Valenzuela
p2490
ag3
aa(lp2491
VCandice Weber
p2492
ag3
aa(lp2493
VJean Stokes
p2494
ag3
aa(lp2495
VMrs. Dana Roach
p2496
ag3
aa(lp2497
VRhonda Rubio
p2498
ag3
aa(lp2499
VRebecca Griffin
p2500
ag12
aa(lp2501
VRandy Gonzalez
p2502
ag3
aa(lp2503
VKimberly Livingston
p2504
ag12
aa(lp2505
VPeter Curtis
p2506
ag3
aa(lp2507
VHarry Huynh
p2508
ag3
aa(lp2509
VDeanna Hill
p2510
ag12
aa(lp2511
VJason Brooks
p2512
ag3
aa(lp2513
VSusan Contreras
p2514
ag12
aa(lp2515
VHeather Bruce
p2516
ag3
aa(lp2517
VDanielle Watson DDS
p2518
ag3
aa(lp2519
VJodi Rose
p2520
ag12
aa(lp2521
VMark Morton
p2522
ag12
aa(lp2523
VCindy Solis
p2524
ag3
aa(lp2525
VRobert Brown
p2526
ag3
aa(lp2527
VLeah Young
p2528
ag3
aa(lp2529
VAdam Palmer
p2530
ag3
aa(lp2531
VZachary King
p2532
ag3
aa(lp2533
VMary Salazar
p2534
ag3
aa(lp2535
VMr. Joshua Henry
p2536
ag3
aa(lp2537
VRyan Green
p2538
ag3
aa(lp2539
VJoseph Murray
p2540
ag12
aa(lp2541
VJames Clayton
p2542
ag3
aa(lp2543
VHeather Davenport
p2544
ag3
aa(lp2545
VWilliam Crane
p2546
ag3
aa(lp2547
VAdrienne Hill
p2548
ag3
aa(lp2549
VJohnny Rich
p2550
ag3
aa(lp2551
VLauren Smith
p2552
ag3
aa(lp2553
VAndrew Peters
p2554
ag3
aa(lp2555
VJulie Guzman
p2556
ag3
aa(lp2557
VCrystal Watkins
p2558
ag12
aa(lp2559
VTravis Ayers
p2560
ag3
aa(lp2561
VRachel Collins
p2562
ag3
aa(lp2563
VHeidi Mejia
p2564
ag3
aa(lp2565
VLisa Rodriguez
p2566
ag3
aa(lp2567
VOmar Benitez
p2568
ag3
aa(lp2569
VMs. Sheri Smith
p2570
ag3
aa(lp2571
VMicheal Wade
p2572
ag3
aa(lp2573
VMichael Newton
p2574
ag12
aa(lp2575
VSean Poole
p2576
ag12
aa(lp2577
VKatherine Parrish
p2578
ag3
aa(lp2579
VHelen Padilla
p2580
ag3
aa(lp2581
VDavid Anderson
p2582
ag3
aa(lp2583
VAmanda Martinez
p2584
ag12
aa(lp2585
VBecky Mckenzie
p2586
ag3
aa(lp2587
VCheryl Allison
p2588
ag3
aa(lp2589
VPhillip Henry
p2590
ag3
aa(lp2591
VAndrew Mcintosh
p2592
ag3
aa(lp2593
VCarolyn Goodwin
p2594
ag3
aa(lp2595
VLauren Kelly
p2596
ag3
aa(lp2597
VTonya Graham
p2598
ag3
aa(lp2599
VDeborah Moore
p2600
ag3
aa(lp2601
VBlake Jackson
p2602
ag12
aa(lp2603
VDennis Long
p2604
ag12
aa(lp2605
VMatthew Russell
p2606
ag3
aa(lp2607
VMichaela Garcia
p2608
ag3
aa(lp2609
VMichael Dunlap
p2610
ag12
aa(lp2611
VJames Young
p2612
ag3
aa(lp2613
VDavid Orr
p2614
ag3
aa(lp2615
VAshley Maldonado
p2616
ag3
aa(lp2617
VAnna Le
p2618
ag3
aa(lp2619
VLindsay Kim
p2620
ag3
aa(lp2621
VDerrick Edwards
p2622
ag3
aa(lp2623
VCarly Paul
p2624
ag3
aa(lp2625
VSara Clark
p2626
ag3
aa(lp2627
VDr. William Bell MD
p2628
ag3
aa(lp2629
VMichelle Jones
p2630
ag3
aa(lp2631
VJason Branch
p2632
ag3
aa(lp2633
VJessica Alvarado
p2634
ag3
aa(lp2635
VMelissa Hernandez
p2636
ag3
aa(lp2637
VDaniel Torres PhD
p2638
ag3
aa(lp2639
VCharles Holland
p2640
ag3
aa(lp2641
VMolly Harding
p2642
ag3
aa(lp2643
VNatasha Phillips
p2644
ag12
aa(lp2645
VJohn Waters
p2646
ag3
aa(lp2647
VMartin Owens
p2648
ag3
aa(lp2649
VJordan Burns
p2650
ag3
aa(lp2651
VBrandon Baker
p2652
ag3
aa(lp2653
VJonathan Collier
p2654
ag12
aa(lp2655
VAshley Peterson
p2656
ag3
aa(lp2657
VMichele Davis
p2658
ag3
aa(lp2659
VLauren Hamilton
p2660
ag3
aa(lp2661
VCourtney Mccarthy
p2662
ag3
aa(lp2663
VLindsay Rhodes
p2664
ag3
aa(lp2665
VSean Peterson
p2666
ag3
aa(lp2667
VPatrick Davis
p2668
ag3
aa(lp2669
VJames Walker
p2670
ag3
aa(lp2671
VSteven Lara
p2672
ag3
aa(lp2673
VJerome Miller
p2674
ag3
aa(lp2675
VKevin Brown
p2676
ag3
aa(lp2677
VMichael Wright
p2678
ag3
aa(lp2679
VStephanie Rogers
p2680
ag3
aa(lp2681
VJoseph Williams
p2682
ag3
aa(lp2683
VAdam Gill
p2684
ag3
aa(lp2685
VSabrina Walker
p2686
ag3
aa(lp2687
VChristopher Estrada
p2688
ag3
aa(lp2689
VJoseph Gallagher
p2690
ag3
aa(lp2691
VLaura Ray
p2692
ag3
aa(lp2693
VBrenda Salinas
p2694
ag3
aa(lp2695
VLori Hill
p2696
ag3
aa(lp2697
VNicholas Cooper
p2698
ag3
aa(lp2699
VJohn Estrada
p2700
ag3
aa(lp2701
VRebecca Stafford
p2702
ag3
aa(lp2703
VKathryn Weber
p2704
ag3
aa(lp2705
VMelinda Zuniga
p2706
ag3
aa(lp2707
VChristopher Henry
p2708
ag3
aa(lp2709
VAndrew Murphy
p2710
ag3
aa(lp2711
VNatasha King
p2712
ag3
aa(lp2713
VDavid Thompson
p2714
ag3
aa(lp2715
VJacob Stevens
p2716
ag3
aa(lp2717
VMichael Smith
p2718
ag3
aa(lp2719
VChristopher Gomez
p2720
ag3
aa(lp2721
VAlec Hodges
p2722
ag3
aa(lp2723
VJonathan Mitchell
p2724
ag3
aa(lp2725
VLisa Dixon
p2726
ag12
aa(lp2727
VBridget Hansen
p2728
ag3
aa(lp2729
VDanielle Adams
p2730
ag3
aa(lp2731
VIsabella Stewart
p2732
ag3
aa(lp2733
VShawn Lewis
p2734
ag3
aa(lp2735
VJimmy Carr
p2736
ag3
aa(lp2737
VTodd Frey
p2738
ag3
aa(lp2739
VAnne Lynch
p2740
ag3
aa(lp2741
VCraig Price
p2742
ag3
aa(lp2743
VKatelyn Castillo
p2744
ag12
aa(lp2745
VStacy Barnes
p2746
ag3
aa(lp2747
VMorgan Garcia
p2748
ag3
aa(lp2749
VWalter Cuevas
p2750
ag3
aa(lp2751
VGabriel Love
p2752
ag3
aa(lp2753
VVeronica Irwin
p2754
ag3
aa(lp2755
VPatrick Robinson
p2756
ag3
aa(lp2757
VRobert Burke
p2758
ag12
aa(lp2759
VCassandra Jones
p2760
ag3
aa(lp2761
VStephanie Young
p2762
ag12
aa(lp2763
VBrooke Robertson
p2764
ag3
aa(lp2765
VRichard Roach
p2766
ag3
aa(lp2767
VBrandy Mcdonald
p2768
ag3
aa(lp2769
VJustin Schroeder
p2770
ag3
aa(lp2771
VAdam Pitts
p2772
ag12
aa(lp2773
VAshley Jones
p2774
ag3
aa(lp2775
VJackie Macias
p2776
ag3
aa(lp2777
VJustin Lewis
p2778
ag3
aa(lp2779
VCassandra Sharp
p2780
ag3
aa(lp2781
VMargaret Taylor
p2782
ag3
aa(lp2783
VAlicia Williams
p2784
ag3
aa(lp2785
VConnie Williamson
p2786
ag3
aa(lp2787
VKyle Olson
p2788
ag3
aa(lp2789
VMichael Barrera
p2790
ag3
aa(lp2791
VKathleen Oconnor DDS
p2792
ag3
aa(lp2793
VDonna Reynolds
p2794
ag3
aa(lp2795
VJamie Oliver
p2796
ag3
aa(lp2797
VKim Hartman
p2798
ag3
aa(lp2799
VJames Green
p2800
ag3
aa(lp2801
VMadison Green
p2802
ag3
aa(lp2803
VVincent Fox
p2804
ag12
aa(lp2805
VBrenda Myers
p2806
ag3
aa(lp2807
VSharon Perkins
p2808
ag12
aa(lp2809
VDonald Oneill
p2810
ag3
aa(lp2811
VJennifer Weiss
p2812
ag3
aa(lp2813
VJasmine Hunt
p2814
ag3
aa(lp2815
VHenry Patton
p2816
ag3
aa(lp2817
VJohn Baker
p2818
ag3
aa(lp2819
VNatasha Hunt
p2820
ag3
aa(lp2821
VPamela Jackson
p2822
ag3
aa(lp2823
VBryan Sexton
p2824
ag3
aa(lp2825
VMelissa Sosa
p2826
ag3
aa(lp2827
VChase Sanchez
p2828
ag3
aa(lp2829
VAmanda Martinez
p2830
ag3
aa(lp2831
VGina Wolf DDS
p2832
ag3
aa(lp2833
VMary Miller
p2834
ag3
aa(lp2835
VPatrick Guerrero
p2836
ag3
aa(lp2837
VMary Nelson
p2838
ag3
aa(lp2839
VRobert Castro
p2840
ag3
aa(lp2841
VWilliam Haas
p2842
ag3
aa(lp2843
VCraig Saunders
p2844
ag3
aa(lp2845
VJeff Chambers
p2846
ag3
aa(lp2847
VJulie Archer
p2848
ag3
aa(lp2849
VJeffrey Wise
p2850
ag3
aa(lp2851
VDavid Meyer
p2852
ag3
aa(lp2853
VShannon Davis
p2854
ag3
aa(lp2855
VJennifer Dawson
p2856
ag3
aa(lp2857
VStephanie Warren
p2858
ag3
aa(lp2859
VDavid Frye
p2860
ag3
aa(lp2861
VMorgan Ross
p2862
ag3
aa(lp2863
VMichael Cuevas
p2864
ag3
aa(lp2865
VBenjamin Moreno
p2866
ag3
aa(lp2867
VJose Sweeney
p2868
ag3
aa(lp2869
VMr. Daniel Faulkner
p2870
ag12
aa(lp2871
VChristopher Cox
p2872
ag3
aa(lp2873
VDawn Mitchell
p2874
ag3
aa(lp2875
VRyan Griffith
p2876
ag3
aa(lp2877
VVictoria Nelson
p2878
ag3
aa(lp2879
VKevin Melendez
p2880
ag3
aa(lp2881
VLucas Preston
p2882
ag3
aa(lp2883
VJacob Price
p2884
ag3
aa(lp2885
VTroy Miller
p2886
ag3
aa(lp2887
VMichelle Guzman
p2888
ag3
aa(lp2889
VAnthony Caldwell
p2890
ag3
aa(lp2891
VMatthew West
p2892
ag3
aa(lp2893
VDavid Cisneros
p2894
ag3
aa(lp2895
VWilliam Cummings
p2896
ag3
aa(lp2897
VSarah Huerta
p2898
ag3
aa(lp2899
VAaron Ramirez
p2900
ag3
aa(lp2901
VEric Adkins
p2902
ag12
aa(lp2903
VNicole Noble
p2904
ag3
aa(lp2905
VNicole Carr
p2906
ag3
aa(lp2907
VMichael White
p2908
ag3
aa(lp2909
VDavid Bryan PhD
p2910
ag3
aa(lp2911
VKenneth Harmon
p2912
ag3
aa(lp2913
VLinda Alvarado
p2914
ag3
aa(lp2915
VSamantha Davis
p2916
ag3
aa(lp2917
VTaylor Fleming MD
p2918
ag3
aa(lp2919
VTroy Rivera
p2920
ag3
aa(lp2921
VJustin Jones
p2922
ag3
aa(lp2923
VJessica Lopez
p2924
ag3
aa(lp2925
VStephanie Acosta
p2926
ag3
aa(lp2927
VThomas Vincent
p2928
ag3
aa(lp2929
VCynthia Kim
p2930
ag3
aa(lp2931
VSarah Robinson
p2932
ag12
aa(lp2933
VXavier Green
p2934
ag12
aa(lp2935
VAdam Gray
p2936
ag3
aa(lp2937
VSheila Johnson
p2938
ag3
aa(lp2939
VJoe Ward
p2940
ag3
aa(lp2941
VDarryl Murphy
p2942
ag3
aa(lp2943
VMiranda Williams
p2944
ag12
aa(lp2945
VDerrick Raymond
p2946
ag3
aa(lp2947
VJerry Williams
p2948
ag3
aa(lp2949
VRyan Lee
p2950
ag3
aa(lp2951
VJames Perez
p2952
ag12
aa(lp2953
VFranklin White
p2954
ag12
aa(lp2955
VDeborah Miller
p2956
ag3
aa(lp2957
VChristopher Watkins
p2958
ag3
aa(lp2959
VKatie Cox
p2960
ag3
aa(lp2961
VThomas Alvarez
p2962
ag3
aa(lp2963
VRobin Sanchez
p2964
ag3
aa(lp2965
VChristine Osborne
p2966
ag3
aa(lp2967
VTaylor Davis
p2968
ag12
aa(lp2969
VTina Griffith
p2970
ag3
aa(lp2971
VTodd Zamora
p2972
ag3
aa(lp2973
VTimothy Flynn
p2974
ag3
aa(lp2975
VEdwin Willis
p2976
ag3
aa(lp2977
VJeremy Edwards
p2978
ag12
aa(lp2979
VJohn Hancock
p2980
ag3
aa(lp2981
VDennis Sutton
p2982
ag12
aa(lp2983
VRegina Davis
p2984
ag3
aa(lp2985
VEric Thomas
p2986
ag3
aa(lp2987
VCathy Fernandez
p2988
ag3
aa(lp2989
VMatthew Rocha DDS
p2990
ag3
aa(lp2991
VBrenda Riggs
p2992
ag3
aa(lp2993
VNicole Padilla
p2994
ag3
aa(lp2995
VAlicia Tanner
p2996
ag3
aa(lp2997
VJennifer Griffin
p2998
ag3
aa(lp2999
VRobert Ramirez
p3000
ag3
aa(lp3001
VMary Foster
p3002
ag3
aa(lp3003
VLori Anderson
p3004
ag3
aa(lp3005
VManuel Deleon
p3006
ag3
aa(lp3007
VStacy Brown
p3008
ag3
aa(lp3009
VAntonio Lopez
p3010
ag3
aa(lp3011
VCheryl Kennedy
p3012
ag3
aa(lp3013
VAndrew Griffin
p3014
ag3
aa(lp3015
VMaria King
p3016
ag3
aa(lp3017
VDavid Walker
p3018
ag3
aa(lp3019
VJane Sparks
p3020
ag3
aa(lp3021
VAngela Powell DVM
p3022
ag12
aa(lp3023
VShannon Bolton
p3024
ag3
aa(lp3025
VChad Moreno
p3026
ag3
aa(lp3027
VJermaine Baker
p3028
ag3
aa(lp3029
VAmanda Taylor
p3030
ag12
aa(lp3031
VCourtney Pierce
p3032
ag3
aa(lp3033
VJulie Rodriguez
p3034
ag12
aa(lp3035
VCarrie Wright
p3036
ag3
aa(lp3037
VTeresa Gonzalez
p3038
ag3
aa(lp3039
VMichael Smith
p3040
ag12
aa(lp3041
VJulia Jones
p3042
ag3
aa(lp3043
VChristopher Beasley
p3044
ag3
aa(lp3045
VMr. Antonio Silva DDS
p3046
ag3
aa(lp3047
VLisa Flores
p3048
ag3
aa(lp3049
VTimothy Cole
p3050
ag3
aa(lp3051
VJeanne Williams
p3052
ag3
aa(lp3053
VJustin Jackson
p3054
ag3
aa(lp3055
VJackie Parrish
p3056
ag3
aa(lp3057
VAnn Meza
p3058
ag3
aa(lp3059
VRonnie Day
p3060
ag3
aa(lp3061
VElizabeth Jenkins
p3062
ag3
aa(lp3063
VTara Hoffman
p3064
ag3
aa(lp3065
VMr. Todd Wu
p3066
ag3
aa(lp3067
VGregory Watkins
p3068
ag3
aa(lp3069
VElizabeth Adams
p3070
ag3
aa(lp3071
VAshley Leblanc
p3072
ag3
aa(lp3073
VJulie Collier
p3074
ag3
aa(lp3075
VMelissa Thomas
p3076
ag3
aa(lp3077
VJames Johnson PhD
p3078
ag12
aa(lp3079
VTravis Montes
p3080
ag3
aa(lp3081
VMichelle Black
p3082
ag3
aa(lp3083
VTrevor Torres
p3084
ag12
aa(lp3085
VAmy Wilson
p3086
ag3
aa(lp3087
VJacob Williams
p3088
ag3
aa(lp3089
VMr. Matthew Welch DVM
p3090
ag3
aa(lp3091
VAmber Cruz
p3092
ag12
aa(lp3093
VChristopher Benitez
p3094
ag3
aa(lp3095
VDana Cole
p3096
ag3
aa(lp3097
VFrancisco Moyer
p3098
ag3
aa(lp3099
VElizabeth Patel
p3100
ag3
aa(lp3101
VJoshua Nunez
p3102
ag3
aa(lp3103
VMelinda Casey
p3104
ag3
aa(lp3105
VRobert Gutierrez
p3106
ag3
aa(lp3107
VSandra Hebert
p3108
ag12
aa(lp3109
VLindsey Duran
p3110
ag3
aa(lp3111
VSara Williams
p3112
ag3
aa(lp3113
VGlen Stephens
p3114
ag3
aa(lp3115
VVictoria Glenn
p3116
ag3
aa(lp3117
VPatrick Davis
p3118
ag3
aa(lp3119
VLeah Patterson
p3120
ag3
aa(lp3121
VElizabeth Walker
p3122
ag3
aa(lp3123
VDennis Lamb
p3124
ag3
aa(lp3125
VZachary Holloway
p3126
ag3
aa(lp3127
VCassidy Hutchinson
p3128
ag3
aa(lp3129
VSara Valenzuela
p3130
ag3
aa(lp3131
VKimberly Barrett
p3132
ag3
aa(lp3133
VNicole Anderson
p3134
ag3
aa(lp3135
VClayton Ramos
p3136
ag3
aa(lp3137
VJulie Pennington
p3138
ag3
aa(lp3139
VJames Gillespie
p3140
ag3
aa(lp3141
VEmily Bell
p3142
ag3
aa(lp3143
VChad Huynh
p3144
ag3
aa(lp3145
VDawn Kirk
p3146
ag3
aa(lp3147
VMatthew Brown
p3148
ag3
aa(lp3149
VCynthia Ryan
p3150
ag3
aa(lp3151
VRobert Sanchez
p3152
ag12
aa(lp3153
VShelby Parrish
p3154
ag12
aa(lp3155
VAaron Yates
p3156
ag3
aa(lp3157
VTom Smith
p3158
ag3
aa(lp3159
VAnn Perez
p3160
ag3
aa(lp3161
VEric Flores
p3162
ag3
aa(lp3163
VJasmine Cordova
p3164
ag3
aa(lp3165
VKimberly Fuentes
p3166
ag3
aa(lp3167
VNancy Walton
p3168
ag12
aa(lp3169
VJordan Hughes
p3170
ag3
aa(lp3171
VSean Green
p3172
ag3
aa(lp3173
VBrandon Moore
p3174
ag3
aa(lp3175
VEmily Lewis
p3176
ag3
aa(lp3177
VDavid Rivera
p3178
ag12
aa(lp3179
VTina Jimenez
p3180
ag3
aa(lp3181
VVeronica White
p3182
ag3
aa(lp3183
VAlan Hall DDS
p3184
ag3
aa(lp3185
VJohn Brown
p3186
ag3
aa(lp3187
VRobert Mckinney
p3188
ag3
aa(lp3189
VSonia Allen
p3190
ag3
aa(lp3191
VJohn Mejia
p3192
ag3
aa(lp3193
VCarlos Barnes
p3194
ag3
aa(lp3195
VMs. Lisa Scott
p3196
ag3
aa(lp3197
VBenjamin Howard
p3198
ag3
aa(lp3199
VDanielle Campbell
p3200
ag3
aa(lp3201
VJesus Fry
p3202
ag3
aa(lp3203
VRoy Wise
p3204
ag3
aa(lp3205
VLisa Berg
p3206
ag3
aa(lp3207
VShannon Jones
p3208
ag3
aa(lp3209
VJeffrey Chen
p3210
ag3
aa(lp3211
VCurtis Acosta
p3212
ag3
aa(lp3213
VMichael Ruiz
p3214
ag3
aa(lp3215
VJennifer Moreno
p3216
ag12
aa(lp3217
VChristopher Horne
p3218
ag3
aa(lp3219
VHelen Jensen
p3220
ag12
aa(lp3221
VAmber Bright
p3222
ag3
aa(lp3223
VCharles Miller
p3224
ag3
aa(lp3225
VJeffrey Wong
p3226
ag3
aa(lp3227
VSamantha Weber
p3228
ag3
aa(lp3229
VDaniel Calderon
p3230
ag3
aa(lp3231
VElizabeth Lopez
p3232
ag3
aa(lp3233
VBenjamin Edwards
p3234
ag3
aa(lp3235
VMichelle Peters
p3236
ag3
aa(lp3237
VMelissa Thomas
p3238
ag3
aa(lp3239
VElizabeth Meyer
p3240
ag3
aa(lp3241
VRebecca Patel
p3242
ag3
aa(lp3243
VDavid Smith
p3244
ag3
aa(lp3245
VThomas Collins
p3246
ag3
aa(lp3247
VPatrick Stewart
p3248
ag3
aa(lp3249
VAdriana Ramirez
p3250
ag3
aa(lp3251
VSandra Wagner
p3252
ag3
aa(lp3253
VThomas Ward
p3254
ag3
aa(lp3255
VMicheal Ross
p3256
ag3
aa(lp3257
VJose Holloway
p3258
ag12
aa(lp3259
VMichael Lee
p3260
ag3
aa(lp3261
VPaul Johnson
p3262
ag12
aa(lp3263
VMichelle Contreras
p3264
ag12
aa(lp3265
VMarcus Kim
p3266
ag3
aa(lp3267
VJose Martin
p3268
ag12
aa(lp3269
VJustin Day
p3270
ag3
aa(lp3271
VDebra Lewis
p3272
ag3
aa(lp3273
VJeremy Walker
p3274
ag3
aa(lp3275
VJohn Mills
p3276
ag3
aa(lp3277
VDanielle Hartman
p3278
ag3
aa(lp3279
VAlicia Green
p3280
ag3
aa(lp3281
VJames Long
p3282
ag3
aa(lp3283
VMaria Higgins
p3284
ag3
aa(lp3285
VScott Leon
p3286
ag3
aa(lp3287
VSarah Allen
p3288
ag3
aa(lp3289
VNathaniel Boyd
p3290
ag3
aa(lp3291
VErin Richards
p3292
ag3
aa(lp3293
VKristen Whitney
p3294
ag3
aa(lp3295
VDr. Shannon Hill
p3296
ag3
aa(lp3297
VDaniel Green
p3298
ag3
aa(lp3299
VTaylor Nicholson
p3300
ag3
aa(lp3301
VMark Santos
p3302
ag3
aa(lp3303
VNicole Nguyen
p3304
ag3
aa(lp3305
VTracy Maxwell
p3306
ag3
aa(lp3307
VHeather Love
p3308
ag3
aa(lp3309
VAshley Williamson
p3310
ag12
aa(lp3311
VRuth Hoffman
p3312
ag3
aa(lp3313
VDeborah Stewart
p3314
ag3
aa(lp3315
VMartin Key
p3316
ag3
aa(lp3317
VBrian Smith
p3318
ag3
aa(lp3319
VDerek Benson
p3320
ag3
aa(lp3321
VMelissa Thompson
p3322
ag3
aa(lp3323
VVickie Rosario
p3324
ag3
aa(lp3325
VPatricia Garner
p3326
ag12
aa(lp3327
VChristine Mills
p3328
ag12
aa(lp3329
VJoshua Russell
p3330
ag3
aa(lp3331
VWilliam Goodwin
p3332
ag3
aa(lp3333
VAnita Brown
p3334
ag12
aa(lp3335
VShawn Floyd
p3336
ag3
aa(lp3337
VJonathan Bailey
p3338
ag3
aa(lp3339
VMichael Blackburn
p3340
ag3
aa(lp3341
VMichael Garcia
p3342
ag12
aa(lp3343
VNathan Kelly
p3344
ag3
aa(lp3345
VLisa Silva PhD
p3346
ag3
aa(lp3347
VRobert Garcia
p3348
ag3
aa(lp3349
VAshley Knight
p3350
ag3
aa(lp3351
VKatherine Smith
p3352
ag12
aa(lp3353
VJennifer Christian
p3354
ag3
aa(lp3355
VTamara Phillips
p3356
ag3
aa(lp3357
VEmily Turner
p3358
ag3
aa(lp3359
VNatasha Hobbs
p3360
ag3
aa(lp3361
VEllen Cooper
p3362
ag3
aa(lp3363
VCheryl Butler
p3364
ag3
aa(lp3365
VJohn Thomas
p3366
ag3
aa(lp3367
VMichael Contreras DVM
p3368
ag3
aa(lp3369
VKimberly Howard
p3370
ag12
aa(lp3371
VSandy Powell
p3372
ag3
aa(lp3373
VHenry Jones
p3374
ag3
aa(lp3375
VWilliam Lee
p3376
ag3
aa(lp3377
VAustin Wells
p3378
ag3
aa(lp3379
VChristy Marshall
p3380
ag3
aa(lp3381
VScott Willis
p3382
ag3
aa(lp3383
VKevin Gibbs
p3384
ag3
aa(lp3385
VKristi Foster
p3386
ag3
aa(lp3387
VKenneth Jones
p3388
ag3
aa(lp3389
VJaclyn Pineda
p3390
ag12
aa(lp3391
VTaylor Evans
p3392
ag3
aa(lp3393
VLauren Wheeler
p3394
ag3
aa(lp3395
VDeborah Harding
p3396
ag3
aa(lp3397
VRobert Gutierrez
p3398
ag3
aa(lp3399
VAlexandra Cross
p3400
ag3
aa(lp3401
VMr. Daniel Reese
p3402
ag3
aa(lp3403
VMatthew Barnes
p3404
ag3
aa(lp3405
VNancy Marquez
p3406
ag3
aa(lp3407
VDaniel Rivers
p3408
ag3
aa(lp3409
VKristen Murphy
p3410
ag3
aa(lp3411
VMegan Allen
p3412
ag3
aa(lp3413
VJoseph Austin
p3414
ag3
aa(lp3415
VCrystal Gallagher
p3416
ag3
aa(lp3417
VAllison Lloyd
p3418
ag3
aa(lp3419
VMark Brown
p3420
ag3
aa(lp3421
VMark Kirby
p3422
ag3
aa(lp3423
VJoseph Johnson
p3424
ag3
aa(lp3425
VApril Walker
p3426
ag3
aa(lp3427
VJessica Bennett
p3428
ag3
aa(lp3429
VPeter Miller
p3430
ag3
aa(lp3431
VJohn Rocha
p3432
ag3
aa(lp3433
VJoshua Stafford
p3434
ag3
aa(lp3435
VMelanie Carroll
p3436
ag3
aa(lp3437
VBrittany Robinson
p3438
ag3
aa(lp3439
VJustin Hughes
p3440
ag3
aa(lp3441
VRonald Garcia
p3442
ag12
aa(lp3443
VLuis Robinson
p3444
ag3
aa(lp3445
VDavid Zamora
p3446
ag3
aa(lp3447
VDiane Wells
p3448
ag3
aa(lp3449
VMaria Brown
p3450
ag3
aa(lp3451
VSara Walker
p3452
ag3
aa(lp3453
VStephen Gonzalez
p3454
ag3
aa(lp3455
VSteven Lowe
p3456
ag3
aa(lp3457
VNatasha Rodriguez
p3458
ag12
aa(lp3459
VWilliam Sullivan
p3460
ag3
aa(lp3461
VElizabeth Jordan
p3462
ag3
aa(lp3463
VLaura French
p3464
ag3
aa(lp3465
VDavid Lee
p3466
ag12
aa(lp3467
VEric Fowler
p3468
ag3
aa(lp3469
VIan James
p3470
ag3
aa(lp3471
VJames Clark
p3472
ag3
aa(lp3473
VErin Reynolds
p3474
ag3
aa(lp3475
VKenneth Jackson
p3476
ag3
aa(lp3477
VKatrina Shields
p3478
ag3
aa(lp3479
VMr. Douglas Allen
p3480
ag3
aa(lp3481
VJennifer Olson
p3482
ag3
aa(lp3483
VMr. Bob Phelps
p3484
ag3
aa(lp3485
VSamantha Smith
p3486
ag3
aa(lp3487
VLaura Edwards
p3488
ag3
aa(lp3489
VAshley Oneill
p3490
ag3
aa(lp3491
VRobin Hoffman
p3492
ag3
aa(lp3493
VNichole Simpson
p3494
ag3
aa(lp3495
VDaniel Thompson
p3496
ag3
aa(lp3497
VStephanie Underwood
p3498
ag3
aa(lp3499
VClaire Booth
p3500
ag3
aa(lp3501
VJessica Kerr
p3502
ag3
aa(lp3503
VKeith Herrera
p3504
ag3
aa(lp3505
VAlfred Harris
p3506
ag12
aa(lp3507
VMary Ray
p3508
ag3
aa(lp3509
VJacqueline Jones
p3510
ag12
aa(lp3511
VLeroy Wolfe
p3512
ag3
aa(lp3513
VAngela Reynolds
p3514
ag3
aa(lp3515
VLaura Simmons
p3516
ag3
aa(lp3517
VCarolyn Gonzalez
p3518
ag3
aa(lp3519
VBarbara Miller
p3520
ag3
aa(lp3521
VBarbara Murphy
p3522
ag3
aa(lp3523
VLisa Cooper
p3524
ag3
aa(lp3525
VNicholas Garner
p3526
ag3
aa(lp3527
VKevin Willis
p3528
ag3
aa(lp3529
VThomas Delacruz
p3530
ag3
aa(lp3531
VShannon Perez
p3532
ag3
aa(lp3533
VDaniel Washington
p3534
ag3
aa(lp3535
VBryan Camacho
p3536
ag3
aa(lp3537
VSarah Chaney
p3538
ag3
aa(lp3539
VZachary Allen
p3540
ag3
aa(lp3541
VScott Kent
p3542
ag3
aa(lp3543
VDebra Morgan
p3544
ag3
aa(lp3545
VRandy Chapman
p3546
ag3
aa(lp3547
VJasmine Walker
p3548
ag3
aa(lp3549
VCarol Smith
p3550
ag3
aa(lp3551
VDillon Mayer
p3552
ag3
aa(lp3553
VSheila Anderson
p3554
ag3
aa(lp3555
VWilliam Brown
p3556
ag12
aa(lp3557
VBernard Miller
p3558
ag3
aa(lp3559
VJerry Fuller
p3560
ag3
aa(lp3561
VAngela Brooks
p3562
ag3
aa(lp3563
VMelissa Johnson
p3564
ag3
aa(lp3565
VCarmen Schroeder
p3566
ag3
aa(lp3567
VStephanie Hampton
p3568
ag3
aa(lp3569
VJason Lopez
p3570
ag3
aa(lp3571
VKenneth Johnson
p3572
ag3
aa(lp3573
VScott Leach
p3574
ag3
aa(lp3575
VAlvin Griffin
p3576
ag3
aa(lp3577
VJoseph Taylor
p3578
ag3
aa(lp3579
VNatalie Duffy
p3580
ag3
aa(lp3581
VDanielle Walters
p3582
ag3
aa(lp3583
VMichele Bell
p3584
ag12
aa(lp3585
VLisa Ramos
p3586
ag3
aa(lp3587
VFrank Reyes
p3588
ag3
aa(lp3589
VJames Duncan
p3590
ag3
aa(lp3591
VNicole Conner
p3592
ag3
aa(lp3593
VShelly Rice
p3594
ag12
aa(lp3595
VBrandon Schneider
p3596
ag3
aa(lp3597
VLaura Krueger
p3598
ag3
aa(lp3599
VWesley Tucker
p3600
ag3
aa(lp3601
VAngela Drake
p3602
ag12
aa(lp3603
VJaime Johnson
p3604
ag3
aa(lp3605
VSusan Medina
p3606
ag3
aa(lp3607
VAntonio Watts
p3608
ag3
aa(lp3609
VAshley Gomez
p3610
ag3
aa(lp3611
VKaren Clements
p3612
ag3
aa(lp3613
VMelissa Haley
p3614
ag3
aa(lp3615
VEdwin Santos
p3616
ag3
aa(lp3617
VDaniel Cannon
p3618
ag3
aa(lp3619
VTheresa Rodgers
p3620
ag3
aa(lp3621
VMark Brown
p3622
ag3
aa(lp3623
VNicholas Savage
p3624
ag12
aa(lp3625
VMelissa Ramirez
p3626
ag3
aa(lp3627
VShaun Gibson
p3628
ag3
aa(lp3629
VDeanna Mcdonald
p3630
ag3
aa(lp3631
VCraig Huerta
p3632
ag3
aa(lp3633
VRegina Cochran
p3634
ag3
aa(lp3635
VHector Rodriguez
p3636
ag12
aa(lp3637
VJonathan Smith
p3638
ag3
aa(lp3639
VChristopher Williams
p3640
ag3
aa(lp3641
VKatherine Frank
p3642
ag3
aa(lp3643
VJoshua Love
p3644
ag3
aa(lp3645
VPatrick Herrera
p3646
ag3
aa(lp3647
VTimothy Lee
p3648
ag3
aa(lp3649
VDavid Kramer
p3650
ag3
aa(lp3651
VJustin Armstrong
p3652
ag3
aa(lp3653
VRobin Patrick
p3654
ag3
aa(lp3655
VJennifer Doyle
p3656
ag3
aa(lp3657
VRonnie Holden
p3658
ag3
aa(lp3659
VDavid Sullivan
p3660
ag3
aa(lp3661
VEmily Oconnell
p3662
ag3
aa(lp3663
VJessica Adams
p3664
ag3
aa(lp3665
VErik Brown
p3666
ag3
aa(lp3667
VLisa Ross
p3668
ag3
aa(lp3669
VMathew Warren
p3670
ag3
aa(lp3671
VJohn Morales
p3672
ag3
aa(lp3673
VJade Hart
p3674
ag12
aa(lp3675
VDeborah Clark
p3676
ag3
aa(lp3677
VJustin Baxter
p3678
ag3
aa(lp3679
VDebra Perkins
p3680
ag3
aa(lp3681
VAnthony Jenkins
p3682
ag3
aa(lp3683
VJacob Whitaker
p3684
ag3
aa(lp3685
VDavid Lee
p3686
ag3
aa(lp3687
VChristopher Hernandez
p3688
ag3
aa(lp3689
VErin Davis
p3690
ag12
aa(lp3691
VDerek Cole
p3692
ag3
aa(lp3693
VNathaniel Martin
p3694
ag3
aa(lp3695
VChristina Rojas
p3696
ag3
aa(lp3697
VAmy Campbell
p3698
ag3
aa(lp3699
VChristy Vance
p3700
ag3
aa(lp3701
VClaire Duke
p3702
ag3
aa(lp3703
VRobert Jones
p3704
ag3
aa(lp3705
VMegan Maxwell
p3706
ag3
aa(lp3707
VKaren Orr
p3708
ag3
aa(lp3709
VJennifer Washington
p3710
ag3
aa(lp3711
VCharles Taylor
p3712
ag3
aa(lp3713
VBrandon Taylor
p3714
ag3
aa(lp3715
VRichard Burgess
p3716
ag3
aa(lp3717
VMichael Delgado
p3718
ag3
aa(lp3719
VThomas Ramsey
p3720
ag3
aa(lp3721
VCatherine Scott
p3722
ag3
aa(lp3723
VLaura Maddox
p3724
ag3
aa(lp3725
VChristopher Rodriguez
p3726
ag3
aa(lp3727
VJennifer Owens
p3728
ag3
aa(lp3729
VShannon Petty
p3730
ag3
aa(lp3731
VShelly Chen
p3732
ag3
aa(lp3733
VMichael Howard DDS
p3734
ag3
aa(lp3735
VSusan Harmon
p3736
ag3
aa(lp3737
VSteven Malone
p3738
ag3
aa(lp3739
VBrent Aguirre
p3740
ag3
aa(lp3741
VSharon Smith
p3742
ag12
aa(lp3743
VLawrence Simon
p3744
ag3
aa(lp3745
VBrian Thornton
p3746
ag3
aa(lp3747
VJulie Bean MD
p3748
ag3
aa(lp3749
VAdam Decker
p3750
ag3
aa(lp3751
VIsabella Spencer
p3752
ag3
aa(lp3753
VDaniel Ford
p3754
ag12
aa(lp3755
VErika Avery
p3756
ag3
aa(lp3757
VEvan Allen
p3758
ag3
aa(lp3759
VScott Guerra
p3760
ag3
aa(lp3761
VAntonio Solomon
p3762
ag12
aa(lp3763
VDonna Wheeler
p3764
ag3
aa(lp3765
VHannah Duncan
p3766
ag3
aa(lp3767
VDr. Rebecca Hogan
p3768
ag3
aa(lp3769
VAmanda Harvey
p3770
ag12
aa(lp3771
VBenjamin Smith
p3772
ag3
aa(lp3773
VDaniel Ayala DDS
p3774
ag3
aa(lp3775
VJordan Garcia
p3776
ag3
aa(lp3777
VMitchell Williams
p3778
ag3
aa(lp3779
VMichael Robertson
p3780
ag12
aa(lp3781
VJoshua Young
p3782
ag3
aa(lp3783
VAnthony Kelly
p3784
ag12
aa(lp3785
VStacey Morgan
p3786
ag3
aa(lp3787
VJames Rocha
p3788
ag3
aa(lp3789
VMisty Gilbert
p3790
ag3
aa(lp3791
VLisa Schwartz
p3792
ag3
aa(lp3793
VTabitha Frost
p3794
ag12
aa(lp3795
VDaniel Mercer
p3796
ag3
aa(lp3797
VPatricia Chavez
p3798
ag3
aa(lp3799
VMr. Paul Mejia
p3800
ag3
aa(lp3801
VKim Moses
p3802
ag3
aa(lp3803
VDiana Mcdonald
p3804
ag3
aa(lp3805
VMisty Hunter
p3806
ag3
aa(lp3807
VBrianna Perkins
p3808
ag3
aa(lp3809
VCorey Hunt
p3810
ag3
aa(lp3811
VLatoya Mccullough
p3812
ag12
aa(lp3813
VMadeline Long
p3814
ag3
aa(lp3815
VHarold Huff
p3816
ag3
aa(lp3817
VTonya Montes
p3818
ag3
aa(lp3819
VLisa Edwards
p3820
ag3
aa(lp3821
VAmanda Frazier
p3822
ag3
aa(lp3823
VDaniel Johns
p3824
ag3
aa(lp3825
VAmanda Hill
p3826
ag3
aa(lp3827
VDavid Robinson
p3828
ag3
aa(lp3829
VZachary Lucas
p3830
ag3
aa(lp3831
VTeresa Davis
p3832
ag3
aa(lp3833
VCurtis Brown
p3834
ag12
aa(lp3835
VAmber Hernandez
p3836
ag3
aa(lp3837
VHarold Webb
p3838
ag3
aa(lp3839
VDebra Henderson
p3840
ag12
aa(lp3841
VDonna Dominguez
p3842
ag3
aa(lp3843
VJames King
p3844
ag3
aa(lp3845
VWilliam Mccoy
p3846
ag12
aa(lp3847
VNicole Butler
p3848
ag3
aa(lp3849
VDavid Payne
p3850
ag3
aa(lp3851
VDebra Harper
p3852
ag3
aa(lp3853
VLawrence Farley
p3854
ag3
aa(lp3855
VChelsea Gray
p3856
ag3
aa(lp3857
VTiffany Meyers
p3858
ag3
aa(lp3859
VDr. Leah Mitchell MD
p3860
ag12
aa(lp3861
VPaul Fuentes
p3862
ag12
aa(lp3863
VAlexander Cooper
p3864
ag3
aa(lp3865
VShelby Mccullough
p3866
ag3
aa(lp3867
VMichele Hamilton
p3868
ag3
aa(lp3869
VKayla Fisher
p3870
ag3
aa(lp3871
VHailey Bell
p3872
ag3
aa(lp3873
VWilliam Fry
p3874
ag3
aa(lp3875
VMichael Lopez
p3876
ag3
aa(lp3877
VMark Mccullough
p3878
ag3
aa(lp3879
VSarah Best
p3880
ag12
aa(lp3881
VAmanda Miller
p3882
ag3
aa(lp3883
VRonald Griffin
p3884
ag12
aa(lp3885
VMatthew Hooper
p3886
ag3
aa(lp3887
VKrystal Wilcox
p3888
ag12
aa(lp3889
VDustin Rice
p3890
ag3
aa(lp3891
VLaura Rogers
p3892
ag3
aa(lp3893
VKatherine Johnson
p3894
ag3
aa(lp3895
VKayla Mcguire
p3896
ag3
aa(lp3897
VVictoria Gilbert
p3898
ag12
aa(lp3899
VJennifer Woodward
p3900
ag3
aa(lp3901
VTimothy Ayers
p3902
ag12
aa(lp3903
VDestiny Kennedy
p3904
ag3
aa(lp3905
VJasmine Melton
p3906
ag3
aa(lp3907
VAlexandra West
p3908
ag3
aa(lp3909
VMr. Wayne Sawyer
p3910
ag3
aa(lp3911
VMichael Ballard
p3912
ag3
aa(lp3913
VJasmine Weber
p3914
ag3
aa(lp3915
VJoseph Tate
p3916
ag3
aa(lp3917
VLouis Golden
p3918
ag3
aa(lp3919
VAndrea Benson
p3920
ag12
aa(lp3921
VCarl Mason
p3922
ag3
aa(lp3923
VLeslie Brooks
p3924
ag12
aa(lp3925
VSarah Kerr
p3926
ag3
aa(lp3927
VElizabeth Martinez
p3928
ag3
aa(lp3929
VWilliam Sanchez
p3930
ag3
aa(lp3931
VRobert Velazquez
p3932
ag3
aa(lp3933
VVincent Hall
p3934
ag3
aa(lp3935
VShelley Contreras
p3936
ag3
aa(lp3937
VJasmine Thompson
p3938
ag3
aa(lp3939
VAndrew Carr
p3940
ag3
aa(lp3941
VKaren Goodwin
p3942
ag3
aa(lp3943
VJennifer Turner
p3944
ag3
aa(lp3945
VMark Hardin
p3946
ag3
aa(lp3947
VDouglas Spencer
p3948
ag3
aa(lp3949
VDr. Jeffrey Anderson
p3950
ag3
aa(lp3951
VSarah Gonzalez
p3952
ag3
aa(lp3953
VPenny Walker
p3954
ag3
aa(lp3955
VDavid Vargas
p3956
ag3
aa(lp3957
VRebecca Gutierrez
p3958
ag3
aa(lp3959
VScott Farmer
p3960
ag3
aa(lp3961
VJacob Lee
p3962
ag3
aa(lp3963
VClinton Hawkins
p3964
ag3
aa(lp3965
VDana Thomas
p3966
ag3
aa(lp3967
VMichael Evans
p3968
ag3
aa(lp3969
VPaige Jones
p3970
ag3
aa(lp3971
VRichard Moore
p3972
ag3
aa(lp3973
VSara Jackson
p3974
ag3
aa(lp3975
VMichael Dudley
p3976
ag3
aa(lp3977
VChristy Glass
p3978
ag3
aa(lp3979
VTodd Williams
p3980
ag12
aa(lp3981
VBrianna Williams
p3982
ag3
aa(lp3983
VJason Conway
p3984
ag3
aa(lp3985
VBenjamin Fox
p3986
ag3
aa(lp3987
VTyler Armstrong
p3988
ag12
aa(lp3989
VMatthew Ruiz
p3990
ag3
aa(lp3991
VDaniel Allen
p3992
ag12
aa(lp3993
VAlexandra Duffy
p3994
ag3
aa(lp3995
VGrant Lopez
p3996
ag3
aa(lp3997
VCollin Monroe
p3998
ag3
aa(lp3999
VJeffery Johnson
p4000
ag3
aa(lp4001
VChristopher Morgan
p4002
ag12
aa(lp4003
VAngela Clark
p4004
ag3
aa(lp4005
VRaymond Torres
p4006
ag3
aa(lp4007
VPhillip Myers
p4008
ag3
aa(lp4009
VMary Schroeder
p4010
ag3
aa(lp4011
VErica Hartman
p4012
ag3
aa(lp4013
VJennifer Gonzalez
p4014
ag3
aa(lp4015
VAaron Barry
p4016
ag3
aa(lp4017
VJoshua Nelson
p4018
ag3
aa(lp4019
VRonald James
p4020
ag3
aa(lp4021
VKayla Austin
p4022
ag3
aa(lp4023
VChloe Nielsen
p4024
ag3
aa(lp4025
VGregory Becker
p4026
ag3
aa(lp4027
VStephanie Wood
p4028
ag3
aa(lp4029
VCody Jones
p4030
ag12
aa(lp4031
VWilliam Oconnell
p4032
ag3
aa(lp4033
VChristopher Marshall
p4034
ag3
aa(lp4035
VAmber Bell
p4036
ag3
aa(lp4037
VMrs. Jennifer Morgan
p4038
ag3
aa(lp4039
VTiffany Barrett
p4040
ag3
aa(lp4041
VJack Mcmillan
p4042
ag3
aa(lp4043
VCrystal Webb
p4044
ag3
aa(lp4045
VBrandon Stewart
p4046
ag3
aa(lp4047
VRyan Vincent
p4048
ag3
aa(lp4049
VAshley Smith
p4050
ag3
aa(lp4051
VBrandon Gonzalez
p4052
ag3
aa(lp4053
VJoshua Harris
p4054
ag3
aa(lp4055
VMaurice Adams
p4056
ag3
aa(lp4057
VAmanda Johnson
p4058
ag3
aa(lp4059
VPenny Torres
p4060
ag3
aa(lp4061
VNicholas Luna
p4062
ag3
aa(lp4063
VDonna Myers
p4064
ag3
aa(lp4065
VSarah Jones
p4066
ag3
aa(lp4067
VNatasha Aguilar
p4068
ag3
aa(lp4069
VDarrell Martin
p4070
ag3
aa(lp4071
VMatthew Hernandez
p4072
ag3
aa(lp4073
VJillian Collins
p4074
ag3
aa(lp4075
VJennifer Duran
p4076
ag3
aa(lp4077
VMichael Garcia
p4078
ag3
aa(lp4079
VBonnie Graves
p4080
ag3
aa(lp4081
VSamantha Nguyen
p4082
ag3
aa(lp4083
VKyle Oneal
p4084
ag3
aa(lp4085
VJulie Harvey
p4086
ag3
aa(lp4087
VFrank Stevens
p4088
ag3
aa(lp4089
VKeith Horne
p4090
ag3
aa(lp4091
VTina Willis
p4092
ag3
aa(lp4093
VBrandi Patel
p4094
ag3
aa(lp4095
VAngela Phillips
p4096
ag3
aa(lp4097
VRyan Burns
p4098
ag3
aa(lp4099
VRebekah Chapman
p4100
ag3
aa(lp4101
VDavid Johnston
p4102
ag3
aa(lp4103
VDavid Cole
p4104
ag3
aa(lp4105
VTyler Smith
p4106
ag3
aa(lp4107
VDr. Christopher Kane
p4108
ag12
aa(lp4109
VBrian Cunningham
p4110
ag3
aa(lp4111
VGrant Wu
p4112
ag3
aa(lp4113
VCaleb Fitzgerald
p4114
ag12
aa(lp4115
VJonathan Simmons
p4116
ag3
aa(lp4117
VMichelle Caldwell
p4118
ag3
aa(lp4119
VDavid Gonzalez
p4120
ag3
aa(lp4121
VOlivia Blake
p4122
ag3
aa(lp4123
VDana Mccarthy
p4124
ag3
aa(lp4125
VAmy Moore
p4126
ag3
aa(lp4127
VHeather Key
p4128
ag3
aa(lp4129
VBrittany Flores
p4130
ag3
aa(lp4131
VJoanne Hernandez
p4132
ag3
aa(lp4133
VAnna Ward
p4134
ag3
aa(lp4135
VBenjamin Brennan
p4136
ag3
aa(lp4137
VAngel Carroll
p4138
ag3
aa(lp4139
VBrian Sherman
p4140
ag3
aa(lp4141
VNathan Kelly
p4142
ag3
aa(lp4143
VAlexander Anderson
p4144
ag3
aa(lp4145
VDoris Wade
p4146
ag3
aa(lp4147
VSara White DVM
p4148
ag3
aa(lp4149
VCharles Jensen
p4150
ag3
aa(lp4151
VAlexander Lewis
p4152
ag3
aa(lp4153
VScott Wright
p4154
ag3
aa(lp4155
VJonathan Robinson
p4156
ag3
aa(lp4157
VChristina Harris
p4158
ag3
aa(lp4159
VSara Hughes
p4160
ag3
aa(lp4161
VMichelle Bell
p4162
ag3
aa(lp4163
VCrystal Jackson
p4164
ag3
aa(lp4165
VDouglas Bryan
p4166
ag3
aa(lp4167
VStephanie Lloyd
p4168
ag3
aa(lp4169
VRyan Randall
p4170
ag3
aa(lp4171
VJackie Duncan
p4172
ag3
aa(lp4173
VJoseph Yang
p4174
ag3
aa(lp4175
VJoshua Webster
p4176
ag3
aa(lp4177
VAlexis Bailey
p4178
ag3
aa(lp4179
VDavid Reyes
p4180
ag3
aa(lp4181
VGregory James
p4182
ag3
aa(lp4183
VSarah Martin
p4184
ag3
aa(lp4185
VJudy Gonzales
p4186
ag3
aa(lp4187
VRandy Finley
p4188
ag3
aa(lp4189
VStephanie Chavez
p4190
ag3
aa(lp4191
VOscar Davis
p4192
ag3
aa(lp4193
VBailey Owens
p4194
ag3
aa(lp4195
VTravis Dickson
p4196
ag3
aa(lp4197
VCody Hess
p4198
ag3
aa(lp4199
VJulie Garcia
p4200
ag3
aa(lp4201
VGrant Morrison
p4202
ag3
aa(lp4203
VPaula Smith
p4204
ag3
aa(lp4205
VCharles Gordon
p4206
ag3
aa(lp4207
VKaren Bennett
p4208
ag3
aa(lp4209
VNicholas Johnson
p4210
ag3
aa(lp4211
VDana Miller
p4212
ag3
aa(lp4213
VManuel Mendoza
p4214
ag3
aa(lp4215
VJennifer Brown
p4216
ag3
aa(lp4217
VSteven Holmes
p4218
ag3
aa(lp4219
VJessica Mclaughlin
p4220
ag3
aa(lp4221
VKristi Holmes
p4222
ag3
aa(lp4223
VDavid Campbell
p4224
ag3
aa(lp4225
VRachel Wood
p4226
ag3
aa(lp4227
VAmy Garrett
p4228
ag3
aa(lp4229
VJames Ramirez
p4230
ag3
aa(lp4231
VChristine Mckinney
p4232
ag3
aa(lp4233
VJustin Love
p4234
ag3
aa(lp4235
VCarla Kelly
p4236
ag3
aa(lp4237
VSarah Nguyen
p4238
ag3
aa(lp4239
VBrian Lin
p4240
ag3
aa(lp4241
VEmma Gomez
p4242
ag3
aa(lp4243
VNancy Stewart
p4244
ag3
aa(lp4245
VKaren Brady
p4246
ag3
aa(lp4247
VPaul Gibbs
p4248
ag3
aa(lp4249
VGabrielle Murray
p4250
ag3
aa(lp4251
VKristie Garrison
p4252
ag3
aa(lp4253
VAmanda Walker
p4254
ag3
aa(lp4255
VJulie Gutierrez
p4256
ag3
aa(lp4257
VRaymond Meyer
p4258
ag3
aa(lp4259
VTyler Flores
p4260
ag3
aa(lp4261
VGlenn Rocha
p4262
ag3
aa(lp4263
VDavid Lewis
p4264
ag3
aa(lp4265
VAmanda Luna
p4266
ag3
aa(lp4267
VAnthony Jones
p4268
ag3
aa(lp4269
VLauren Mills
p4270
ag3
aa(lp4271
VLarry Jenkins
p4272
ag3
aa(lp4273
VGarrett Parsons
p4274
ag3
aa(lp4275
VAndrea Strickland
p4276
ag3
aa(lp4277
VCynthia Singh
p4278
ag3
aa(lp4279
VKevin Reed
p4280
ag3
aa(lp4281
VLindsey Schmidt
p4282
ag3
aa(lp4283
VAndrew Stone
p4284
ag3
aa(lp4285
VSherry Johnston
p4286
ag12
aa(lp4287
VLisa Young DDS
p4288
ag3
aa(lp4289
VMary Gutierrez
p4290
ag3
aa(lp4291
VDarrell Duran
p4292
ag3
aa(lp4293
VErica Smith
p4294
ag3
aa(lp4295
VBrandon Gonzalez
p4296
ag3
aa(lp4297
VRaymond Mcneil
p4298
ag3
aa(lp4299
VSpencer Meyers
p4300
ag3
aa(lp4301
VBenjamin Stephenson
p4302
ag3
aa(lp4303
VMary Wallace
p4304
ag3
aa(lp4305
VDavid Jackson
p4306
ag3
aa(lp4307
VJaclyn Escobar
p4308
ag3
aa(lp4309
VDr. Mandy Nelson
p4310
ag3
aa(lp4311
VBrandon Ruiz
p4312
ag3
aa(lp4313
VMr. Anthony Dickson DVM
p4314
ag3
aa(lp4315
VJody Clarke
p4316
ag3
aa(lp4317
VMark Williams
p4318
ag12
aa(lp4319
VJoseph Monroe
p4320
ag3
aa(lp4321
VVanessa Bailey
p4322
ag3
aa(lp4323
VTiffany Ferguson
p4324
ag3
aa(lp4325
VJames Espinoza
p4326
ag3
aa(lp4327
VSarah Hughes
p4328
ag12
aa(lp4329
VMelissa Henry
p4330
ag3
aa(lp4331
VKelly Moon
p4332
ag3
aa(lp4333
VJacob Aguirre
p4334
ag3
aa(lp4335
VDalton Garrison
p4336
ag3
aa(lp4337
VNicholas Kim
p4338
ag3
aa(lp4339
VJamie Graham
p4340
ag3
aa(lp4341
VJill Thomas
p4342
ag3
aa(lp4343
VJose Wright
p4344
ag3
aa(lp4345
VFrank Richards
p4346
ag3
aa(lp4347
VRobert Wallace
p4348
ag3
aa(lp4349
VCourtney Williams
p4350
ag3
aa(lp4351
VMelissa Jimenez
p4352
ag3
aa(lp4353
VKimberly Rose
p4354
ag3
aa(lp4355
VKimberly Schultz
p4356
ag3
aa(lp4357
VCheryl Gentry
p4358
ag3
aa(lp4359
VAngela Keller
p4360
ag12
aa(lp4361
VCheryl Mercer
p4362
ag3
aa(lp4363
VTaylor Johnson
p4364
ag3
aa(lp4365
VMrs. Patricia Alvarez
p4366
ag3
aa(lp4367
VJames Carter
p4368
ag3
aa(lp4369
VAlyssa King
p4370
ag3
aa(lp4371
VWilliam Harvey
p4372
ag3
aa(lp4373
VTravis Franco
p4374
ag12
aa(lp4375
VTimothy Johnston
p4376
ag3
aa(lp4377
VKaren Lynch
p4378
ag12
aa(lp4379
VHeidi Webb
p4380
ag3
aa(lp4381
VPamela Hull
p4382
ag3
aa(lp4383
VCarolyn Page
p4384
ag3
aa(lp4385
VChristina Ferguson
p4386
ag3
aa(lp4387
VJoseph Chandler
p4388
ag3
aa(lp4389
VPatrick Peterson
p4390
ag3
aa(lp4391
VAllen Diaz
p4392
ag3
aa(lp4393
VMichele Newman
p4394
ag12
aa(lp4395
VApril Ward
p4396
ag3
aa(lp4397
VJason Hayes
p4398
ag3
aa(lp4399
VEddie Vargas
p4400
ag3
aa(lp4401
VMs. Rebecca King
p4402
ag3
aa(lp4403
VJavier Wood
p4404
ag3
aa(lp4405
VHeather Bradford
p4406
ag3
aa(lp4407
VMichael Rice
p4408
ag3
aa(lp4409
VEric Chandler
p4410
ag3
aa(lp4411
VSharon Nguyen
p4412
ag3
aa(lp4413
VCarlos Sharp
p4414
ag3
aa(lp4415
VNicole Hernandez
p4416
ag3
aa(lp4417
VLuke White
p4418
ag3
aa(lp4419
VMrs. Connie Booth
p4420
ag3
aa(lp4421
VBeth Perez
p4422
ag3
aa(lp4423
VBrandon Alvarado
p4424
ag3
aa(lp4425
VAmanda Charles
p4426
ag3
aa(lp4427
VMr. Alexander Ray
p4428
ag3
aa(lp4429
VGlenn Clayton
p4430
ag3
aa(lp4431
VDaniel Miller
p4432
ag3
aa(lp4433
VKara Jacobs
p4434
ag3
aa(lp4435
VAlicia Knight
p4436
ag3
aa(lp4437
VJessica Stanley
p4438
ag12
aa(lp4439
VBobby Jackson
p4440
ag3
aa(lp4441
VRaymond Miller
p4442
ag3
aa(lp4443
VMegan Moses
p4444
ag3
aa(lp4445
VJoshua Price
p4446
ag12
aa(lp4447
VMichael Lucas
p4448
ag3
aa(lp4449
VDawn Savage
p4450
ag3
aa(lp4451
VDavid Nguyen
p4452
ag3
aa(lp4453
VJustin Martin
p4454
ag3
aa(lp4455
VVictor Barron
p4456
ag3
aa(lp4457
VErin Wolfe
p4458
ag3
aa(lp4459
VKaren Leblanc
p4460
ag12
aa(lp4461
VCrystal Garcia
p4462
ag3
aa(lp4463
VAngel Mccall
p4464
ag3
aa(lp4465
VDavid Riggs
p4466
ag3
aa(lp4467
VCarrie Banks
p4468
ag3
aa(lp4469
VAshley Hall
p4470
ag3
aa(lp4471
VJeffrey Lutz
p4472
ag3
aa(lp4473
VJohn Vasquez
p4474
ag3
aa(lp4475
VErica Martin
p4476
ag3
aa(lp4477
VJoseph Davidson
p4478
ag3
aa(lp4479
VRachel Atkins
p4480
ag3
aa(lp4481
VAmber Orozco
p4482
ag3
aa(lp4483
VMichael Tran
p4484
ag12
aa(lp4485
VKelly Francis
p4486
ag3
aa(lp4487
VTroy Stafford
p4488
ag3
aa(lp4489
VPatrick Scott
p4490
ag3
aa(lp4491
VMicheal Osborne
p4492
ag3
aa(lp4493
VAnthony Wade
p4494
ag3
aa(lp4495
VAlan Davis
p4496
ag3
aa(lp4497
VJulie Mcdonald
p4498
ag3
aa(lp4499
VRobert Collins
p4500
ag3
aa(lp4501
VJordan Noble
p4502
ag3
aa(lp4503
VSandra Johnson
p4504
ag3
aa(lp4505
VDominique Foley
p4506
ag3
aa(lp4507
VMichael Smith
p4508
ag3
aa(lp4509
VJoshua Brown MD
p4510
ag12
aa(lp4511
VDaniel Keller
p4512
ag3
aa(lp4513
VVanessa Jones
p4514
ag3
aa(lp4515
VBeth Edwards
p4516
ag3
aa(lp4517
VBrent Morrison
p4518
ag3
aa(lp4519
VMatthew Alvarez
p4520
ag3
aa(lp4521
VAndrew Taylor
p4522
ag3
aa(lp4523
VKimberly Barton
p4524
ag3
aa(lp4525
VAnna Smith
p4526
ag3
aa(lp4527
VLee Reese
p4528
ag3
aa(lp4529
VMatthew Bailey
p4530
ag3
aa(lp4531
VPamela Santos
p4532
ag3
aa(lp4533
VJoseph Osborne
p4534
ag3
aa(lp4535
VJoshua Banks
p4536
ag3
aa(lp4537
VRobert Warren
p4538
ag3
aa(lp4539
VMisty Gonzales
p4540
ag3
aa(lp4541
VRyan Mccoy
p4542
ag12
aa(lp4543
VMaria Stephens
p4544
ag3
aa(lp4545
VTara Green
p4546
ag3
aa(lp4547
VDerek Dixon
p4548
ag3
aa(lp4549
VJoseph Ray
p4550
ag3
aa(lp4551
VJoseph Brown
p4552
ag3
aa(lp4553
VLaura Wilkins
p4554
ag3
aa(lp4555
VMichael Parker
p4556
ag3
aa(lp4557
VAngel Jackson
p4558
ag3
aa(lp4559
VRachael Barry
p4560
ag3
aa(lp4561
VSusan Sanchez
p4562
ag3
aa(lp4563
VLaura Melendez
p4564
ag3
aa(lp4565
VJacob Rhodes
p4566
ag3
aa(lp4567
VMichael Le
p4568
ag3
aa(lp4569
VTheresa Perez
p4570
ag3
aa(lp4571
VTracy Jones
p4572
ag3
aa(lp4573
VJoseph Lee PhD
p4574
ag12
aa(lp4575
VWendy Costa
p4576
ag3
aa(lp4577
VTyler Scott
p4578
ag3
aa(lp4579
VMr. Michael Henry III
p4580
ag3
aa(lp4581
VRebecca Ramirez
p4582
ag3
aa(lp4583
VRyan Williams
p4584
ag3
aa(lp4585
VJames Colon
p4586
ag3
aa(lp4587
VJeff Price
p4588
ag3
aa(lp4589
VKimberly Cooper
p4590
ag3
aa(lp4591
VApril Jones
p4592
ag3
aa(lp4593
VEric Gibson
p4594
ag3
aa(lp4595
VKayla Hoover
p4596
ag3
aa(lp4597
VKristin Brennan
p4598
ag3
aa(lp4599
VPriscilla Palmer
p4600
ag12
aa(lp4601
VMr. Joseph Long DDS
p4602
ag3
aa(lp4603
VDr. Amanda Mckinney
p4604
ag3
aa(lp4605
VJeffrey Arnold
p4606
ag3
aa(lp4607
VDana Mitchell
p4608
ag3
aa(lp4609
VPaula Lynch
p4610
ag3
aa(lp4611
VTracy Hicks
p4612
ag3
aa(lp4613
VWalter Wright
p4614
ag3
aa(lp4615
VJames Yoder
p4616
ag3
aa(lp4617
VSharon Bailey
p4618
ag3
aa(lp4619
VMiranda Ward
p4620
ag3
aa(lp4621
VTyrone Morris
p4622
ag3
aa(lp4623
VDana Mason
p4624
ag3
aa(lp4625
VTammy Rojas
p4626
ag3
aa(lp4627
VVirginia George
p4628
ag3
aa(lp4629
VBrian Campbell
p4630
ag3
aa(lp4631
VJennifer Pace
p4632
ag3
aa(lp4633
VMark Frazier
p4634
ag3
aa(lp4635
VMisty Holloway
p4636
ag3
aa(lp4637
VJoanne Jones
p4638
ag3
aa(lp4639
VGregory Lee
p4640
ag3
aa(lp4641
VLaurie Black
p4642
ag3
aa(lp4643
VJennifer Edwards
p4644
ag3
aa(lp4645
VTracy Moreno
p4646
ag3
aa(lp4647
VRoger Parks
p4648
ag3
aa(lp4649
VRachel Davis
p4650
ag3
aa(lp4651
VMr. Robert Rivera
p4652
ag3
aa(lp4653
VPamela Sanchez
p4654
ag3
aa(lp4655
VJennifer Schwartz
p4656
ag3
aa(lp4657
VWendy Flores
p4658
ag3
aa(lp4659
VRyan Trujillo
p4660
ag12
aa(lp4661
VCody Morgan
p4662
ag3
aa(lp4663
VAlice Mann
p4664
ag3
aa(lp4665
VTonya Davies
p4666
ag3
aa(lp4667
VMartha Cochran
p4668
ag3
aa(lp4669
VThomas Wilson
p4670
ag12
aa(lp4671
VMrs. Sophia Holmes
p4672
ag3
aa(lp4673
VJennifer Rhodes
p4674
ag3
aa(lp4675
VTheodore Steele
p4676
ag3
aa(lp4677
VKyle Garcia
p4678
ag3
aa(lp4679
VKaren Reyes
p4680
ag3
aa(lp4681
VKylie Burke
p4682
ag3
aa(lp4683
VMark Lopez
p4684
ag3
aa(lp4685
VJill Hampton
p4686
ag3
aa(lp4687
VMr. Eric Thomas
p4688
ag3
aa(lp4689
VMichael Schmitt
p4690
ag3
aa(lp4691
VSteven Walters
p4692
ag3
aa(lp4693
VDebra Flores
p4694
ag12
aa(lp4695
VVincent Hughes
p4696
ag3
aa(lp4697
VJenny Lane
p4698
ag3
aa(lp4699
VPamela Smith
p4700
ag3
aa(lp4701
VLaura Fox
p4702
ag3
aa(lp4703
VTammy Holden
p4704
ag3
aa(lp4705
VTanner Malone
p4706
ag3
aa(lp4707
VMatthew Bryant
p4708
ag3
aa(lp4709
VKaren Cooper
p4710
ag12
aa(lp4711
VJoshua Barrett
p4712
ag3
aa(lp4713
VDarrell Golden
p4714
ag3
aa(lp4715
VDylan Brown
p4716
ag3
aa(lp4717
VTyler Santos
p4718
ag3
aa(lp4719
VSarah Clayton
p4720
ag3
aa(lp4721
VPhillip Norman
p4722
ag3
aa(lp4723
VJames Perez
p4724
ag3
aa(lp4725
VChad Taylor
p4726
ag3
aa(lp4727
VTiffany Gregory
p4728
ag3
aa(lp4729
VMichael Walker
p4730
ag3
aa(lp4731
VNatasha Good
p4732
ag3
aa(lp4733
VRonald Willis
p4734
ag3
aa(lp4735
VJames Zavala
p4736
ag3
aa(lp4737
VJoseph Thompson
p4738
ag3
aa(lp4739
VJerry Parker
p4740
ag3
aa(lp4741
VEdward Sharp
p4742
ag3
aa(lp4743
VJasmine Daniel
p4744
ag3
aa(lp4745
VGerald Riley
p4746
ag3
aa(lp4747
VDavid Woodard
p4748
ag3
aa(lp4749
VWilliam Stevens
p4750
ag3
aa(lp4751
VAshley Davies
p4752
ag3
aa(lp4753
VZachary Kennedy
p4754
ag12
aa(lp4755
VAlvin Lewis
p4756
ag3
aa(lp4757
VJacob Kelley
p4758
ag3
aa(lp4759
VHaley Johnson
p4760
ag3
aa(lp4761
VZachary Armstrong
p4762
ag3
aa(lp4763
VKelly Day
p4764
ag3
aa(lp4765
VRichard Mcguire MD
p4766
ag3
aa(lp4767
VSavannah Smith
p4768
ag3
aa(lp4769
VKristen Mcdonald
p4770
ag3
aa(lp4771
VMichele Smith
p4772
ag12
aa(lp4773
VAnthony Coleman
p4774
ag3
aa(lp4775
VJeremy Mejia
p4776
ag3
aa(lp4777
VGary Smith
p4778
ag3
aa(lp4779
VEric Fletcher
p4780
ag12
aa(lp4781
VSara Shields
p4782
ag3
aa(lp4783
VLogan Woods
p4784
ag3
aa(lp4785
VSusan Johnson
p4786
ag3
aa(lp4787
VLeslie Smith
p4788
ag3
aa(lp4789
VAdrian Aguilar
p4790
ag3
aa(lp4791
VBrian Delgado
p4792
ag3
aa(lp4793
VRobert Harris
p4794
ag3
aa(lp4795
VEric Wright
p4796
ag3
aa(lp4797
VToni Grimes
p4798
ag3
aa(lp4799
VEbony Hernandez
p4800
ag3
aa(lp4801
VRyan Mcfarland
p4802
ag3
aa(lp4803
VRonald Hernandez
p4804
ag3
aa(lp4805
VPeggy Benson
p4806
ag3
aa(lp4807
VCarrie Valdez
p4808
ag3
aa(lp4809
VSamuel Adams
p4810
ag3
aa(lp4811
VMichelle Jackson
p4812
ag3
aa(lp4813
VJaclyn Owen
p4814
ag3
aa(lp4815
VHeather Harris
p4816
ag3
aa(lp4817
VNancy Cordova
p4818
ag3
aa(lp4819
VStephen Waller Jr.
p4820
ag3
aa(lp4821
VJoseph Marshall
p4822
ag3
aa(lp4823
VSonya Thompson
p4824
ag3
aa(lp4825
VLaura Green
p4826
ag3
aa(lp4827
VGrace Tapia
p4828
ag3
aa(lp4829
VTaylor Johnson
p4830
ag3
aa(lp4831
VMitchell Rodriguez
p4832
ag3
aa(lp4833
VChristopher West
p4834
ag12
aa(lp4835
VLinda Becker
p4836
ag3
aa(lp4837
VKatelyn Bush
p4838
ag3
aa(lp4839
VMark Walsh
p4840
ag3
aa(lp4841
VKathryn Madden
p4842
ag3
aa(lp4843
VLaura Schwartz
p4844
ag12
aa(lp4845
VSydney Perez
p4846
ag3
aa(lp4847
VRichard Navarro
p4848
ag3
aa(lp4849
VJeremy Bridges
p4850
ag3
aa(lp4851
VAmanda Pham
p4852
ag3
aa(lp4853
VChristy Burke
p4854
ag3
aa(lp4855
VChristina Harvey
p4856
ag3
aa(lp4857
VPeter Nash
p4858
ag12
aa(lp4859
VHannah Jenkins
p4860
ag12
aa(lp4861
VMallory Anderson
p4862
ag3
aa(lp4863
VRoger Martinez MD
p4864
ag3
aa(lp4865
VSummer Wilson
p4866
ag3
aa(lp4867
VJessica Velez
p4868
ag3
aa(lp4869
VFrancisco Gibson
p4870
ag12
aa(lp4871
VRenee Hill
p4872
ag3
aa(lp4873
VJennifer Rasmussen
p4874
ag3
aa(lp4875
VJason Cobb
p4876
ag3
aa(lp4877
VCarrie Acosta
p4878
ag3
aa(lp4879
VJustin Jones
p4880
ag3
aa(lp4881
VJessica Flores
p4882
ag3
aa(lp4883
VCraig Cuevas
p4884
ag3
aa(lp4885
VBrandon Roberts
p4886
ag3
aa(lp4887
VKristin Trevino
p4888
ag3
aa(lp4889
VJason Wood
p4890
ag3
aa(lp4891
VAbigail Martin
p4892
ag3
aa(lp4893
VKayla Kennedy
p4894
ag3
aa(lp4895
VJuan James
p4896
ag3
aa(lp4897
VRobert Ramsey
p4898
ag12
aa(lp4899
VJoe Wallace
p4900
ag3
aa(lp4901
VJill Harper
p4902
ag3
aa(lp4903
VJacob Ellis
p4904
ag3
aa(lp4905
VChristopher Ward
p4906
ag3
aa(lp4907
VRebecca Ramirez
p4908
ag3
aa(lp4909
VKelly Lambert
p4910
ag3
aa(lp4911
VJulia Valdez
p4912
ag3
aa(lp4913
VRick Mckay
p4914
ag3
aa(lp4915
VJenny Patel
p4916
ag3
aa(lp4917
VJason Ayala
p4918
ag3
aa(lp4919
VJose Turner
p4920
ag3
aa(lp4921
VJessica Robinson
p4922
ag3
aa(lp4923
VMary Blackwell
p4924
ag3
aa(lp4925
VDonald Boone
p4926
ag3
aa(lp4927
VKatherine Johnson
p4928
ag3
aa(lp4929
VKevin Mann
p4930
ag12
aa(lp4931
VRoger Adams
p4932
ag3
aa(lp4933
VShannon Pollard
p4934
ag3
aa(lp4935
VJohn Cannon
p4936
ag3
aa(lp4937
VCynthia Hays
p4938
ag3
aa(lp4939
VJesse Hayden
p4940
ag3
aa(lp4941
VWilliam Jones
p4942
ag3
aa(lp4943
VLisa Lopez
p4944
ag3
aa(lp4945
VKimberly Davis
p4946
ag3
aa(lp4947
VChristine Williams
p4948
ag3
aa(lp4949
VLisa Davis
p4950
ag3
aa(lp4951
VDylan Stevenson
p4952
ag3
aa(lp4953
VJose Delgado
p4954
ag3
aa(lp4955
VJulia Coleman
p4956
ag3
aa(lp4957
VDaniel Lambert
p4958
ag3
aa(lp4959
VWanda Franco
p4960
ag3
aa(lp4961
VMisty Ellis DDS
p4962
ag3
aa(lp4963
VLisa Mcclure DVM
p4964
ag3
aa(lp4965
VMr. Jason Wright
p4966
ag3
aa(lp4967
VJennifer Smith
p4968
ag3
aa(lp4969
VVeronica Fowler
p4970
ag3
aa(lp4971
VKayla Johnson
p4972
ag3
aa(lp4973
VMary Briggs
p4974
ag3
aa(lp4975
VChristine Butler
p4976
ag3
aa(lp4977
VHeidi Smith
p4978
ag3
aa(lp4979
VSummer Williams
p4980
ag3
aa(lp4981
VJoann Roberson
p4982
ag3
aa(lp4983
VJessica Bennett
p4984
ag3
aa(lp4985
VLarry Mason
p4986
ag3
aa(lp4987
VJose Underwood
p4988
ag3
aa(lp4989
VMadison Abbott
p4990
ag3
aa(lp4991
VAmy Johnson
p4992
ag3
aa(lp4993
VErin Meyer
p4994
ag3
aa(lp4995
VRobert Snow
p4996
ag3
aa(lp4997
VJeffrey Johnson
p4998
ag12
aa(lp4999
VMichael Knapp
p5000
ag3
aa(lp5001
VStephanie Williams
p5002
ag3
aa(lp5003
VCindy Bender
p5004
ag3
aa(lp5005
VJulie Nichols
p5006
ag3
aa(lp5007
VRebecca Patel
p5008
ag3
aa(lp5009
VKim Scott
p5010
ag3
aa(lp5011
VMichael Rush
p5012
ag3
aa(lp5013
VRobert Newton
p5014
ag3
aa(lp5015
VLori Hartman
p5016
ag3
aa(lp5017
VAmanda Wang
p5018
ag3
aa(lp5019
VAshley Rojas
p5020
ag3
aa(lp5021
VEvan Moore
p5022
ag3
aa(lp5023
VNicole Figueroa
p5024
ag12
aa(lp5025
VKimberly Reed
p5026
ag3
aa(lp5027
VOscar Burton
p5028
ag3
aa(lp5029
VVictor King
p5030
ag3
aa(lp5031
VJennifer Larson
p5032
ag3
aa(lp5033
VMaria Williams
p5034
ag3
aa(lp5035
VRachel Poole
p5036
ag3
aa(lp5037
VDavid Elliott
p5038
ag3
aa(lp5039
VPaula Schultz
p5040
ag3
aa(lp5041
VKristin Howard
p5042
ag3
aa(lp5043
VDiane White
p5044
ag3
aa(lp5045
VBrian Alexander
p5046
ag3
aa(lp5047
VChristopher Melton
p5048
ag3
aa(lp5049
VEmily Jackson
p5050
ag3
aa(lp5051
VHolly Lowery
p5052
ag3
aa(lp5053
VPriscilla Davis
p5054
ag3
aa(lp5055
VDarrell Gutierrez
p5056
ag3
aa(lp5057
VGregory Zuniga
p5058
ag3
aa(lp5059
VJulie Blevins
p5060
ag3
aa(lp5061
VMisty Ford
p5062
ag3
aa(lp5063
VRobert Harrell
p5064
ag3
aa(lp5065
VBrittany White
p5066
ag3
aa(lp5067
VDanielle Blanchard
p5068
ag3
aa(lp5069
VLaurie Mckay
p5070
ag3
aa(lp5071
VDawn Perez
p5072
ag3
aa(lp5073
VRandy Sherman DDS
p5074
ag3
aa(lp5075
VMatthew Griffith
p5076
ag3
aa(lp5077
VNatalie Stevenson
p5078
ag3
aa(lp5079
VPeter Reid
p5080
ag3
aa(lp5081
VKathryn Hayes DDS
p5082
ag3
aa(lp5083
VAmber Hanson
p5084
ag12
aa(lp5085
VGail Zhang
p5086
ag3
aa(lp5087
VMichael Simpson
p5088
ag3
aa(lp5089
VLaura Case
p5090
ag3
aa(lp5091
VAngel Lee
p5092
ag3
aa(lp5093
VJames Cervantes
p5094
ag3
aa(lp5095
VLauren Rich
p5096
ag3
aa(lp5097
VSarah Griffith
p5098
ag3
aa(lp5099
VMichael Scott
p5100
ag3
aa(lp5101
VJames Hendricks Jr.
p5102
ag12
aa(lp5103
VMr. Steven Rodriguez
p5104
ag3
aa(lp5105
VSabrina Brewer
p5106
ag3
aa(lp5107
VNatalie Bell
p5108
ag3
aa(lp5109
VRachel Jarvis
p5110
ag3
aa(lp5111
VRaymond White
p5112
ag3
aa(lp5113
VSummer Brock
p5114
ag12
aa(lp5115
VJavier Martinez
p5116
ag3
aa(lp5117
VMichael Scott
p5118
ag3
aa(lp5119
VRyan Thompson
p5120
ag3
aa(lp5121
VCynthia Robinson
p5122
ag3
aa(lp5123
VStephen Freeman
p5124
ag3
aa(lp5125
VKatie Lawrence
p5126
ag3
aa(lp5127
VBradley Becker
p5128
ag3
aa(lp5129
VAllen White
p5130
ag3
aa(lp5131
VTara Wilson
p5132
ag3
aa(lp5133
VMitchell Moore
p5134
ag3
aa(lp5135
VVictoria Gonzalez
p5136
ag3
aa(lp5137
VKevin Williamson
p5138
ag3
aa(lp5139
VDavid Mcdaniel
p5140
ag3
aa(lp5141
VBrent Davidson
p5142
ag3
aa(lp5143
VTammy Hernandez
p5144
ag3
aa(lp5145
VDennis Carter
p5146
ag3
aa(lp5147
VTommy Jones
p5148
ag3
aa(lp5149
VJason Young
p5150
ag3
aa(lp5151
VMichael Caldwell
p5152
ag3
aa(lp5153
VTerry Mckay
p5154
ag3
aa(lp5155
VNicole Ferguson
p5156
ag3
aa(lp5157
VMatthew Fernandez
p5158
ag3
aa(lp5159
VDawn Jackson
p5160
ag3
aa(lp5161
VShaun Yu
p5162
ag3
aa(lp5163
VMr. Shawn Stokes
p5164
ag3
aa(lp5165
VAshley Sharp
p5166
ag3
aa(lp5167
VDr. Michele Jackson MD
p5168
ag12
aa(lp5169
VDeborah Morales
p5170
ag3
aa(lp5171
VMichelle Hoffman
p5172
ag3
aa(lp5173
VKathleen Casey
p5174
ag3
aa(lp5175
VJoanne Harris
p5176
ag3
aa(lp5177
VMiss Sara Fuller MD
p5178
ag3
aa(lp5179
VDaniel Navarro
p5180
ag3
aa(lp5181
VDustin Wade
p5182
ag12
aa(lp5183
VAngela Gonzalez
p5184
ag3
aa(lp5185
VVicki Wilkerson
p5186
ag3
aa(lp5187
VMelissa Mann
p5188
ag3
aa(lp5189
VCharles Duncan
p5190
ag3
aa(lp5191
VSara Cohen
p5192
ag3
aa(lp5193
VLaura Quinn
p5194
ag3
aa(lp5195
VBecky Lopez
p5196
ag3
aa(lp5197
VTina Wilson
p5198
ag3
aa(lp5199
VJulie Lane
p5200
ag3
aa(lp5201
VPeter Gregory
p5202
ag3
aa(lp5203
VChad Pruitt
p5204
ag3
aa(lp5205
VJennifer Chapman
p5206
ag3
aa(lp5207
VNicole Mckay
p5208
ag3
aa(lp5209
VDr. Paul Foster
p5210
ag3
aa(lp5211
VMichael Livingston
p5212
ag3
aa(lp5213
VJessica Anderson
p5214
ag3
aa(lp5215
VAlex Greene
p5216
ag3
aa(lp5217
VAlexandra Perry
p5218
ag3
aa(lp5219
VJoshua Montoya
p5220
ag3
aa(lp5221
VChristine Ruiz
p5222
ag3
aa(lp5223
VSharon Stanley
p5224
ag3
aa(lp5225
VEdwin Skinner
p5226
ag3
aa(lp5227
VMike Stewart
p5228
ag3
aa(lp5229
VJoshua Thompson
p5230
ag3
aa(lp5231
VDouglas Pena
p5232
ag3
aa(lp5233
VJustin Fields
p5234
ag3
aa(lp5235
VVictoria Thomas
p5236
ag3
aa(lp5237
VAnthony Miller
p5238
ag3
aa(lp5239
VJohn Mora
p5240
ag3
aa(lp5241
VJames Richardson
p5242
ag3
aa(lp5243
VMark Newton
p5244
ag3
aa(lp5245
VStephanie Li
p5246
ag3
aa(lp5247
VKristine Brown
p5248
ag3
aa(lp5249
VJennifer Rivera
p5250
ag3
aa(lp5251
VJennifer Hughes
p5252
ag3
aa(lp5253
VJaime Gonzales
p5254
ag3
aa(lp5255
VMichael Lee
p5256
ag3
aa(lp5257
VAlex Juarez DDS
p5258
ag3
aa(lp5259
VNancy Alvarez
p5260
ag3
aa(lp5261
VKevin Ramirez
p5262
ag3
aa(lp5263
VMason White
p5264
ag3
aa(lp5265
VCatherine Perry
p5266
ag3
aa(lp5267
VKathryn Roman
p5268
ag3
aa(lp5269
VAngel Graham
p5270
ag3
aa(lp5271
VAnthony Carney
p5272
ag3
aa(lp5273
VWendy Jackson
p5274
ag3
aa(lp5275
VMason Wolf
p5276
ag3
aa(lp5277
VMichael Smith
p5278
ag3
aa(lp5279
VKatherine Stevens
p5280
ag3
aa(lp5281
VFernando Kim
p5282
ag3
aa(lp5283
VSharon Freeman
p5284
ag12
aa(lp5285
VNicole Williams
p5286
ag3
aa(lp5287
VMichael Smith
p5288
ag3
aa(lp5289
VJames Shaffer
p5290
ag3
aa(lp5291
VScott Blake
p5292
ag3
aa(lp5293
VRegina Morgan
p5294
ag3
aa(lp5295
VJordan Montgomery
p5296
ag3
aa(lp5297
VThomas Bush
p5298
ag3
aa(lp5299
VJustin Larson
p5300
ag3
aa(lp5301
VDavid Thompson
p5302
ag3
aa(lp5303
VMonica Stanley
p5304
ag3
aa(lp5305
VCrystal Harris
p5306
ag3
aa(lp5307
VAngela Barton
p5308
ag3
aa(lp5309
VVeronica Thornton
p5310
ag3
aa(lp5311
VDaniel Rodriguez
p5312
ag3
aa(lp5313
VScott Sanders
p5314
ag3
aa(lp5315
VBrett Bowen
p5316
ag12
aa(lp5317
VBrenda Gamble
p5318
ag3
aa(lp5319
VBrian Simon
p5320
ag3
aa(lp5321
VJoshua Sanchez
p5322
ag3
aa(lp5323
VBarbara Stanley
p5324
ag3
aa(lp5325
VAmber Watson
p5326
ag3
aa(lp5327
VStephanie Myers
p5328
ag3
aa(lp5329
VJoseph Pham
p5330
ag3
aa(lp5331
VLeslie King
p5332
ag3
aa(lp5333
VSarah Brown
p5334
ag3
aa(lp5335
VErica Casey
p5336
ag3
aa(lp5337
VMegan Little
p5338
ag3
aa(lp5339
VAngela Powers
p5340
ag3
aa(lp5341
VRhonda Lopez
p5342
ag3
aa(lp5343
VGabrielle White
p5344
ag3
aa(lp5345
VJeanette Turner
p5346
ag3
aa(lp5347
VCatherine Watts
p5348
ag3
aa(lp5349
VJesus Livingston
p5350
ag3
aa(lp5351
VWanda Carr
p5352
ag3
aa(lp5353
VSteven Hartman
p5354
ag3
aa(lp5355
VJames Johnson
p5356
ag3
aa(lp5357
VLori Anderson
p5358
ag3
aa(lp5359
VWalter Hinton
p5360
ag3
aa(lp5361
VDon Morris
p5362
ag3
aa(lp5363
VChristine Duncan
p5364
ag3
aa(lp5365
VDawn Marshall
p5366
ag3
aa(lp5367
VSandra Morris
p5368
ag3
aa(lp5369
VJo Townsend
p5370
ag3
aa(lp5371
VBrandon Wilson
p5372
ag3
aa(lp5373
VChristina Fritz
p5374
ag3
aa(lp5375
VBrian Ferrell
p5376
ag12
aa(lp5377
VSusan Oconnor
p5378
ag3
aa(lp5379
VRita Stokes
p5380
ag3
aa(lp5381
VAnthony Osborn
p5382
ag3
aa(lp5383
VMonique Gutierrez
p5384
ag3
aa(lp5385
VMegan Black
p5386
ag3
aa(lp5387
VKimberly Ayers
p5388
ag3
aa(lp5389
VJacob Martin
p5390
ag3
aa(lp5391
VApril Ray
p5392
ag3
aa(lp5393
VRonald Nichols
p5394
ag3
aa(lp5395
VVincent Ellis
p5396
ag12
aa(lp5397
VPatricia Blevins
p5398
ag3
aa(lp5399
VJill Atkinson
p5400
ag3
aa(lp5401
VJon Russell MD
p5402
ag3
aa(lp5403
VDaniel Jones
p5404
ag3
aa(lp5405
VJerry Freeman
p5406
ag3
aa(lp5407
VBeth Turner
p5408
ag3
aa(lp5409
VMathew Jackson
p5410
ag3
aa(lp5411
VJamie Huffman
p5412
ag3
aa(lp5413
VJean Parks
p5414
ag3
aa(lp5415
VTiffany Brown
p5416
ag3
aa(lp5417
VValerie Mitchell
p5418
ag3
aa(lp5419
VSarah Trujillo
p5420
ag3
aa(lp5421
VNicole Rocha
p5422
ag3
aa(lp5423
VCarrie Mcconnell
p5424
ag3
aa(lp5425
VAndrew Bush
p5426
ag3
aa(lp5427
VTyler Bonilla
p5428
ag3
aa(lp5429
VKaitlin Horn
p5430
ag3
aa(lp5431
VTiffany Smith
p5432
ag3
aa(lp5433
VValerie Evans
p5434
ag12
aa(lp5435
VDestiny Young
p5436
ag3
aa(lp5437
VRonald Boyer
p5438
ag3
aa(lp5439
VDanielle Zuniga
p5440
ag3
aa(lp5441
VGerald Ramirez
p5442
ag3
aa(lp5443
VRichard Erickson
p5444
ag3
aa(lp5445
VKristin Singh
p5446
ag3
aa(lp5447
VJames Smith
p5448
ag3
aa(lp5449
VJason Miller
p5450
ag3
aa(lp5451
VBrittany Guerra
p5452
ag3
aa(lp5453
VMatthew Riggs
p5454
ag3
aa(lp5455
VAllison Holmes
p5456
ag3
aa(lp5457
VScott Brown
p5458
ag3
aa(lp5459
VDaryl Walker
p5460
ag3
aa(lp5461
VLydia Murphy
p5462
ag12
aa(lp5463
VLarry Schultz
p5464
ag3
aa(lp5465
VLauren Henderson
p5466
ag3
aa(lp5467
VJoanna Sutton
p5468
ag3
aa(lp5469
VTiffany Boone
p5470
ag3
aa(lp5471
VEric Sheppard
p5472
ag3
aa(lp5473
VTerri Todd
p5474
ag3
aa(lp5475
VGwendolyn Brewer
p5476
ag3
aa(lp5477
VSeth French
p5478
ag3
aa(lp5479
VJames Smith
p5480
ag3
aa(lp5481
VJordan Freeman
p5482
ag3
aa(lp5483
VJoseph Morgan
p5484
ag3
aa(lp5485
VBrandon Montgomery
p5486
ag3
aa(lp5487
VTyler Calderon
p5488
ag3
aa(lp5489
VLogan Shaw
p5490
ag3
aa(lp5491
VSara Smith
p5492
ag3
aa(lp5493
VAdrian Howell
p5494
ag3
aa(lp5495
VDonald Smith
p5496
ag3
aa(lp5497
VBrooke French
p5498
ag3
aa(lp5499
VChristopher Edwards
p5500
ag3
aa(lp5501
VBreanna Sanchez
p5502
ag3
aa(lp5503
VMs. Connie Hurst
p5504
ag3
aa(lp5505
VMark Perez
p5506
ag3
aa(lp5507
VErin Barker
p5508
ag3
aa(lp5509
VZachary Miller
p5510
ag3
aa(lp5511
VBrian Zavala
p5512
ag3
aa(lp5513
VScott Wolf
p5514
ag3
aa(lp5515
VJuan Roberts
p5516
ag3
aa(lp5517
VAlexander Jones
p5518
ag3
aa(lp5519
VDana Cook
p5520
ag3
aa(lp5521
VWillie Allen
p5522
ag3
aa(lp5523
VHaley Rhodes
p5524
ag3
aa(lp5525
VMichael Duncan
p5526
ag3
aa(lp5527
VAndrew Jackson
p5528
ag3
aa(lp5529
VDiana Thompson
p5530
ag3
aa(lp5531
VMichael Townsend
p5532
ag3
aa(lp5533
VTyler Moran
p5534
ag3
aa(lp5535
VMike Strickland
p5536
ag3
aa(lp5537
VGregory Romero
p5538
ag3
aa(lp5539
VStacy Yates
p5540
ag3
aa(lp5541
VTamara Baker
p5542
ag3
aa(lp5543
VTanya Castillo
p5544
ag3
aa(lp5545
VBryan Wolfe
p5546
ag3
aa(lp5547
VTracey Flowers
p5548
ag3
aa(lp5549
VJennifer Palmer
p5550
ag3
aa(lp5551
VTanner Anderson
p5552
ag3
aa(lp5553
VLuke Cooper
p5554
ag3
aa(lp5555
VAndrew Brooks
p5556
ag3
aa(lp5557
VTonya Hooper
p5558
ag3
aa(lp5559
VMary Garcia
p5560
ag3
aa(lp5561
VCheyenne Johnson
p5562
ag3
aa(lp5563
VBrian Crawford
p5564
ag3
aa(lp5565
VApril Walker
p5566
ag3
aa(lp5567
VPatrick Knight
p5568
ag3
aa(lp5569
VChristopher Stanley
p5570
ag3
aa(lp5571
VNatalie Huber
p5572
ag3
aa(lp5573
VAshley Rodriguez
p5574
ag3
aa(lp5575
VHeather Clark
p5576
ag3
aa(lp5577
VSarah Smith
p5578
ag3
aa(lp5579
VAnthony Fisher
p5580
ag3
aa(lp5581
VJoseph Miller
p5582
ag3
aa(lp5583
VHeather Gonzalez
p5584
ag3
aa(lp5585
VKelly Thompson
p5586
ag3
aa(lp5587
VTyler Meza
p5588
ag3
aa(lp5589
VBrian Rivera
p5590
ag3
aa(lp5591
VJustin Hunt
p5592
ag3
aa(lp5593
VTammy Herrera
p5594
ag3
aa(lp5595
VCurtis Davis
p5596
ag3
aa(lp5597
VTaylor King
p5598
ag3
aa(lp5599
VMegan Brady
p5600
ag3
aa(lp5601
VJoseph Campbell
p5602
ag3
aa(lp5603
VAaron Hayes
p5604
ag3
aa(lp5605
VBrittany Thompson
p5606
ag3
aa(lp5607
VJennifer Lopez
p5608
ag3
aa(lp5609
VJoseph Sloan
p5610
ag3
aa(lp5611
VErin Wilson
p5612
ag3
aa(lp5613
VHayley Brown
p5614
ag3
aa(lp5615
VAlexandra Bird
p5616
ag3
aa(lp5617
VMichael Douglas
p5618
ag3
aa(lp5619
VWilliam Stephenson
p5620
ag3
aa(lp5621
VDevon Gonzalez
p5622
ag3
aa(lp5623
VCandace Davis
p5624
ag3
aa(lp5625
VMichael Moore
p5626
ag3
aa(lp5627
VJohn Weaver
p5628
ag3
aa(lp5629
VBrandy Jackson
p5630
ag3
aa(lp5631
VSean Brown
p5632
ag3
aa(lp5633
VRichard Pena
p5634
ag3
aa(lp5635
VThomas Mcneil
p5636
ag3
aa(lp5637
VBarbara Spencer
p5638
ag3
aa(lp5639
VDr. Kyle Martinez
p5640
ag3
aa(lp5641
VKevin Allen
p5642
ag3
aa(lp5643
VTara Miller
p5644
ag3
aa(lp5645
VMadison Hernandez
p5646
ag3
aa(lp5647
VAlejandro Garcia
p5648
ag3
aa(lp5649
VZachary Thomas
p5650
ag3
aa(lp5651
VRaymond Page
p5652
ag12
aa(lp5653
VRichard Scott
p5654
ag3
aa(lp5655
VLori Delgado
p5656
ag3
aa(lp5657
VFernando Robles
p5658
ag12
aa(lp5659
VTyler Hawkins
p5660
ag3
aa(lp5661
VJose Fuller
p5662
ag3
aa(lp5663
VAndrea Hill
p5664
ag3
aa(lp5665
VAmy Roberts
p5666
ag12
aa(lp5667
VDavid Shea
p5668
ag3
aa(lp5669
VHeidi Kaiser
p5670
ag3
aa(lp5671
VChristine Foley
p5672
ag3
aa(lp5673
VDominique Garrett
p5674
ag3
aa(lp5675
VDonna Franklin
p5676
ag3
aa(lp5677
VJeremiah Cruz
p5678
ag3
aa(lp5679
VElizabeth Alvarez
p5680
ag3
aa(lp5681
VAlan Thompson
p5682
ag3
aa(lp5683
VDylan Harvey
p5684
ag3
aa(lp5685
VChristopher Holmes
p5686
ag3
aa(lp5687
VMelissa Williams
p5688
ag3
aa(lp5689
VAdrienne Wilson
p5690
ag3
aa(lp5691
VKristina Chandler
p5692
ag3
aa(lp5693
VLaura Bennett
p5694
ag3
aa(lp5695
VRebecca Mitchell
p5696
ag3
aa(lp5697
VStephen Thompson
p5698
ag12
aa(lp5699
VCaitlin Sandoval
p5700
ag3
aa(lp5701
VJeffery Sherman
p5702
ag3
aa(lp5703
VStacy Petty
p5704
ag3
aa(lp5705
VAnn Simon
p5706
ag3
aa(lp5707
VSteven Carney
p5708
ag3
aa(lp5709
VCynthia Raymond
p5710
ag3
aa(lp5711
VSarah Bean
p5712
ag3
aa(lp5713
VPaige Martin
p5714
ag3
aa(lp5715
VCalvin Wilson
p5716
ag3
aa(lp5717
VMr. Dustin Bowen
p5718
ag3
aa(lp5719
VLaura Davenport MD
p5720
ag3
aa(lp5721
VKristina Carlson
p5722
ag3
aa(lp5723
VTamara Johns DDS
p5724
ag3
aa(lp5725
VChelsea Cole
p5726
ag3
aa(lp5727
VRichard Mcneil
p5728
ag3
aa(lp5729
VMarie Johnson
p5730
ag3
aa(lp5731
VRobert Foster
p5732
ag3
aa(lp5733
VCody Blankenship
p5734
ag12
aa(lp5735
VRobert Meyer
p5736
ag12
aa(lp5737
VDerek Brandt
p5738
ag3
aa(lp5739
VRuth Jones
p5740
ag3
aa(lp5741
VMackenzie Weaver
p5742
ag3
aa(lp5743
VAshley Lyons
p5744
ag3
aa(lp5745
VAmanda Lopez
p5746
ag3
aa(lp5747
VMary Vasquez
p5748
ag3
aa(lp5749
VJoel Wiley
p5750
ag12
aa(lp5751
VJanice Buck
p5752
ag3
aa(lp5753
VDanielle Franklin
p5754
ag3
aa(lp5755
VSara Vang
p5756
ag12
aa(lp5757
VDrew Lee
p5758
ag3
aa(lp5759
VErica Stevenson
p5760
ag3
aa(lp5761
VMichelle Hooper
p5762
ag3
aa(lp5763
VEvan Rose
p5764
ag3
aa(lp5765
VRoy Powell
p5766
ag3
aa(lp5767
VBrent Smith
p5768
ag3
aa(lp5769
VManuel George
p5770
ag3
aa(lp5771
VBradley Chen
p5772
ag12
aa(lp5773
VFelicia Sanders
p5774
ag3
aa(lp5775
VAmanda Thomas
p5776
ag3
aa(lp5777
VRaymond Lara
p5778
ag3
aa(lp5779
VJohn Mullins
p5780
ag3
aa(lp5781
VJennifer Davis
p5782
ag3
aa(lp5783
VDaniel Davis
p5784
ag3
aa(lp5785
VMiranda Gray
p5786
ag3
aa(lp5787
VJennifer Garrett
p5788
ag3
aa(lp5789
VSara Miller
p5790
ag3
aa(lp5791
VJulie Solis
p5792
ag3
aa(lp5793
VRichard Cooke
p5794
ag12
aa(lp5795
VCarrie Marshall
p5796
ag3
aa(lp5797
VAndrew Hoffman
p5798
ag3
aa(lp5799
VShirley Riley
p5800
ag3
aa(lp5801
VMichael Burton
p5802
ag3
aa(lp5803
VMichael Patel
p5804
ag3
aa(lp5805
VDaniel Huffman
p5806
ag3
aa(lp5807
VMary Rivera
p5808
ag3
aa(lp5809
VKathy Franklin
p5810
ag3
aa(lp5811
VBrittany Shepard
p5812
ag3
aa(lp5813
VShannon Martinez
p5814
ag3
aa(lp5815
VDavid Owens
p5816
ag3
aa(lp5817
VCourtney Parsons
p5818
ag3
aa(lp5819
VCarolyn Nixon
p5820
ag3
aa(lp5821
VWillie Garcia
p5822
ag3
aa(lp5823
VElizabeth Edwards
p5824
ag3
aa(lp5825
VMary Smith
p5826
ag3
aa(lp5827
VChristopher Reed MD
p5828
ag3
aa(lp5829
VJoseph Walters
p5830
ag3
aa(lp5831
VVincent Wells
p5832
ag3
aa(lp5833
VScott Alexander
p5834
ag3
aa(lp5835
VDawn Dean
p5836
ag3
aa(lp5837
VJill Mueller
p5838
ag3
aa(lp5839
VJennifer Ford
p5840
ag12
aa(lp5841
VTroy Raymond
p5842
ag3
aa(lp5843
VJudith Hughes
p5844
ag3
aa(lp5845
VKristi Jenkins
p5846
ag3
aa(lp5847
VBrian Patrick
p5848
ag3
aa(lp5849
VAndrew Martinez
p5850
ag3
aa(lp5851
VMrs. Leah Wilson
p5852
ag3
aa(lp5853
VDawn Ball
p5854
ag3
aa(lp5855
VMichael Vang
p5856
ag3
aa(lp5857
VJames Wright
p5858
ag3
aa(lp5859
VJoshua Hughes
p5860
ag12
aa(lp5861
VBrenda Silva
p5862
ag3
aa(lp5863
VDavid Chandler
p5864
ag3
aa(lp5865
VMonica Marshall
p5866
ag3
aa(lp5867
VMelissa Davis
p5868
ag3
aa(lp5869
VNicholas Smith
p5870
ag3
aa(lp5871
VRonald Fuller
p5872
ag3
aa(lp5873
VTravis Keller
p5874
ag3
aa(lp5875
VCynthia Chavez
p5876
ag3
aa(lp5877
VDavid Pennington
p5878
ag3
aa(lp5879
VStephanie Cordova
p5880
ag3
aa(lp5881
VEric Carey
p5882
ag3
aa(lp5883
VChristopher Blair
p5884
ag3
aa(lp5885
VErik Hurst
p5886
ag3
aa(lp5887
VPaul Stout
p5888
ag3
aa(lp5889
VZachary Lewis
p5890
ag3
aa(lp5891
VJoseph Rios
p5892
ag3
aa(lp5893
VScott Ramsey
p5894
ag3
aa(lp5895
VTimothy Holt
p5896
ag3
aa(lp5897
VAlexandra Harvey
p5898
ag3
aa(lp5899
VGerald Petty
p5900
ag3
aa(lp5901
VEbony Shepherd
p5902
ag3
aa(lp5903
VKevin Fernandez
p5904
ag3
aa(lp5905
VLauren Ortiz
p5906
ag3
aa(lp5907
VMark Ellis
p5908
ag3
aa(lp5909
VMatthew Fox
p5910
ag3
aa(lp5911
VJody Clark
p5912
ag3
aa(lp5913
VDonald Morse
p5914
ag3
aa(lp5915
VGary Roberts
p5916
ag3
aa(lp5917
VConnie Schneider
p5918
ag3
aa(lp5919
VMatthew Long
p5920
ag12
aa(lp5921
VGuy Underwood
p5922
ag3
aa(lp5923
VRandy May
p5924
ag3
aa(lp5925
VCesar Cooper
p5926
ag3
aa(lp5927
VChristopher Anderson
p5928
ag3
aa(lp5929
VAndrew Craig
p5930
ag3
aa(lp5931
VTammy Ramirez
p5932
ag3
aa(lp5933
VTina Gonzalez
p5934
ag3
aa(lp5935
VRalph Moore
p5936
ag3
aa(lp5937
VMr. George Howard
p5938
ag3
aa(lp5939
VSarah Burgess
p5940
ag3
aa(lp5941
VJennifer Padilla
p5942
ag3
aa(lp5943
VTimothy Miller
p5944
ag12
aa(lp5945
VDr. Marisa Cooper
p5946
ag3
aa(lp5947
VChristopher Webb
p5948
ag3
aa(lp5949
VDanielle Snyder
p5950
ag3
aa(lp5951
VLee Cline
p5952
ag3
aa(lp5953
VBrian Snyder
p5954
ag3
aa(lp5955
VJoseph Chavez
p5956
ag3
aa(lp5957
VSamuel Ramos
p5958
ag3
aa(lp5959
VAngela Johnson
p5960
ag3
aa(lp5961
VWarren Tucker
p5962
ag3
aa(lp5963
VStephanie Soto
p5964
ag3
aa(lp5965
VDavid Martinez
p5966
ag12
aa(lp5967
VBernard Bush
p5968
ag3
aa(lp5969
VCasey Mckinney
p5970
ag3
aa(lp5971
VNatalie Burke
p5972
ag3
aa(lp5973
VCharles Young
p5974
ag3
aa(lp5975
VAbigail Lewis
p5976
ag3
aa(lp5977
VDr. Henry Bailey
p5978
ag3
aa(lp5979
VBeth Johnson
p5980
ag3
aa(lp5981
VKevin Hayes
p5982
ag3
aa(lp5983
VDanielle Kirk
p5984
ag3
aa(lp5985
VMary Hodges
p5986
ag3
aa(lp5987
VChristopher Humphrey
p5988
ag3
aa(lp5989
VBriana Walters
p5990
ag3
aa(lp5991
VMr. Jonathan Gomez MD
p5992
ag3
aa(lp5993
VMary Paul
p5994
ag3
aa(lp5995
VDestiny Stone
p5996
ag3
aa(lp5997
VMarissa Campbell
p5998
ag3
aa(lp5999
VChristopher Rowe
p6000
ag3
aa(lp6001
VJeff Contreras
p6002
ag3
aa(lp6003
VTeresa Gordon
p6004
ag3
aa(lp6005
VAdam Riley
p6006
ag3
aa(lp6007
VCameron Burns
p6008
ag3
aa(lp6009
VMaurice Hoffman
p6010
ag3
aa(lp6011
VTerry Velez
p6012
ag3
aa(lp6013
VDavid Bailey
p6014
ag3
aa(lp6015
VTyler Gonzalez
p6016
ag3
aa(lp6017
VClarence Curry
p6018
ag3
aa(lp6019
VJohn Price
p6020
ag3
aa(lp6021
VDaryl Sanders
p6022
ag3
aa(lp6023
VGrant Lee
p6024
ag3
aa(lp6025
VLinda Crosby
p6026
ag3
aa(lp6027
VAndrew Browning
p6028
ag3
aa(lp6029
VBrandon Spencer
p6030
ag3
aa(lp6031
VCatherine Dunn
p6032
ag3
aa(lp6033
VMichael Lucas
p6034
ag3
aa(lp6035
VCarly Dixon
p6036
ag12
aa(lp6037
VTodd Doyle
p6038
ag3
aa(lp6039
VDaniel Perez
p6040
ag3
aa(lp6041
VMatthew Gonzales
p6042
ag3
aa(lp6043
VThomas Collins
p6044
ag3
aa(lp6045
VJoseph York
p6046
ag3
aa(lp6047
VJoel Coleman
p6048
ag3
aa(lp6049
VMelissa Graves
p6050
ag3
aa(lp6051
VAngela Jenkins
p6052
ag3
aa(lp6053
VElizabeth Le
p6054
ag3
aa(lp6055
VSonya Ortiz
p6056
ag3
aa(lp6057
VKevin Diaz
p6058
ag12
aa(lp6059
VBrittany Miller
p6060
ag3
aa(lp6061
VDonald Watkins
p6062
ag3
aa(lp6063
VRodney Robinson
p6064
ag3
aa(lp6065
VRobert Pierce
p6066
ag3
aa(lp6067
VSara Daniel
p6068
ag3
aa(lp6069
VDr. Kenneth Baldwin
p6070
ag12
aa(lp6071
VEdwin Jackson
p6072
ag3
aa(lp6073
VMichael Jones
p6074
ag3
aa(lp6075
VStephanie Hoffman
p6076
ag3
aa(lp6077
VDavid Munoz
p6078
ag3
aa(lp6079
VKimberly Wright
p6080
ag3
aa(lp6081
VJason Day
p6082
ag3
aa(lp6083
VHaley Martinez
p6084
ag3
aa(lp6085
VGary Torres
p6086
ag3
aa(lp6087
VFrederick Gamble
p6088
ag3
aa(lp6089
VLawrence Park
p6090
ag3
aa(lp6091
VGregory Pham
p6092
ag3
aa(lp6093
VBrian Hernandez
p6094
ag3
aa(lp6095
VAriana Brewer
p6096
ag3
aa(lp6097
VBilly Williams
p6098
ag3
aa(lp6099
VBrenda Hall
p6100
ag3
aa(lp6101
VDavid Dickerson
p6102
ag3
aa(lp6103
VHarold Proctor
p6104
ag3
aa(lp6105
VLaura Henderson
p6106
ag12
aa(lp6107
VJerry Jordan
p6108
ag3
aa(lp6109
VWilliam Mooney
p6110
ag3
aa(lp6111
VJeffrey Webb
p6112
ag3
aa(lp6113
VJason Adams
p6114
ag3
aa(lp6115
VCarly Rich
p6116
ag3
aa(lp6117
VAlexis Ballard
p6118
ag12
aa(lp6119
VMichelle Evans
p6120
ag3
aa(lp6121
VKaren Miller
p6122
ag3
aa(lp6123
VSarah Cunningham
p6124
ag3
aa(lp6125
VJohnny Dawson
p6126
ag3
aa(lp6127
VJames Bowen
p6128
ag3
aa(lp6129
VMatthew Davis
p6130
ag3
aa(lp6131
VJulian Guerrero
p6132
ag3
aa(lp6133
VRebecca Elliott
p6134
ag3
aa(lp6135
VDarrell Fitzpatrick
p6136
ag3
aa(lp6137
VMr. Matthew Martin
p6138
ag3
aa(lp6139
VEric Harvey
p6140
ag3
aa(lp6141
VDavid Quinn
p6142
ag3
aa(lp6143
VJonathan Tanner
p6144
ag3
aa(lp6145
VLaura Hughes
p6146
ag3
aa(lp6147
VJill Brown
p6148
ag3
aa(lp6149
VTaylor Carroll
p6150
ag3
aa(lp6151
VEmily Washington
p6152
ag3
aa(lp6153
VKeith Wilkerson
p6154
ag12
aa(lp6155
VTerry King
p6156
ag3
aa(lp6157
VKatelyn Flores
p6158
ag3
aa(lp6159
VAnna Woods
p6160
ag3
aa(lp6161
VDaniel Hawkins
p6162
ag3
aa(lp6163
VRhonda Stewart
p6164
ag3
aa(lp6165
VTroy Nichols
p6166
ag3
aa(lp6167
VAndre Delacruz
p6168
ag3
aa(lp6169
VMarvin Caldwell
p6170
ag3
aa(lp6171
VBrandon Hill
p6172
ag3
aa(lp6173
VBrandon Fisher
p6174
ag3
aa(lp6175
VRobert Good
p6176
ag3
aa(lp6177
VBeverly Wilson
p6178
ag3
aa(lp6179
VChristopher Harrell
p6180
ag3
aa(lp6181
VJorge Harris
p6182
ag3
aa(lp6183
VPamela Davis
p6184
ag3
aa(lp6185
VBob Price
p6186
ag3
aa(lp6187
VLance Williams
p6188
ag3
aa(lp6189
VKenneth Gomez
p6190
ag3
aa(lp6191
VLaurie Miller
p6192
ag3
aa(lp6193
VCourtney Scott
p6194
ag3
aa(lp6195
VMr. Justin Walls Jr.
p6196
ag3
aa(lp6197
VCarrie Taylor
p6198
ag3
aa(lp6199
VStephen Hicks
p6200
ag3
aa(lp6201
VCaitlyn Larsen
p6202
ag12
aa(lp6203
VJeremiah Henderson
p6204
ag3
aa(lp6205
VJennifer Pratt
p6206
ag3
aa(lp6207
VKathryn Guzman
p6208
ag3
aa(lp6209
VTyler Hampton
p6210
ag3
aa(lp6211
VTiffany Calhoun
p6212
ag3
aa(lp6213
VMaria Walters
p6214
ag3
aa(lp6215
VGeorge Ramsey
p6216
ag3
aa(lp6217
VCalvin Evans
p6218
ag3
aa(lp6219
VKristy Banks
p6220
ag3
aa(lp6221
VPamela Brown
p6222
ag3
aa(lp6223
VEdward Banks
p6224
ag3
aa(lp6225
VErika Phillips
p6226
ag3
aa(lp6227
VCarrie Drake
p6228
ag3
aa(lp6229
VPatrick Young
p6230
ag3
aa(lp6231
VAnn Owens
p6232
ag3
aa(lp6233
VCarlos Phillips
p6234
ag3
aa(lp6235
VChristina Rivera
p6236
ag3
aa(lp6237
VDouglas Shepherd
p6238
ag3
aa(lp6239
VMark Bray
p6240
ag3
aa(lp6241
VJeanette Logan
p6242
ag3
aa(lp6243
VJoshua Lester
p6244
ag3
aa(lp6245
VMallory Caldwell
p6246
ag3
aa(lp6247
VCharles Cummings
p6248
ag12
aa(lp6249
VShelby Burton
p6250
ag3
aa(lp6251
VAnthony Rodriguez
p6252
ag3
aa(lp6253
VErin Welch
p6254
ag3
aa(lp6255
VStephanie Larson
p6256
ag3
aa(lp6257
VChristopher Erickson
p6258
ag3
aa(lp6259
VValerie Harvey
p6260
ag3
aa(lp6261
VDeborah Thompson
p6262
ag3
aa(lp6263
VChristopher Henry
p6264
ag3
aa(lp6265
VEmily Daniel
p6266
ag3
aa(lp6267
VNatalie Wise
p6268
ag3
aa(lp6269
VRyan Kent
p6270
ag3
aa(lp6271
VAnna Robbins
p6272
ag3
aa(lp6273
VRodney Martin
p6274
ag3
aa(lp6275
VCody Patton
p6276
ag3
aa(lp6277
VWanda Smith
p6278
ag3
aa(lp6279
VBrittany Marsh
p6280
ag3
aa(lp6281
VLarry Alvarez
p6282
ag3
aa(lp6283
VDevin Brown
p6284
ag3
aa(lp6285
VMichael Hodge
p6286
ag3
aa(lp6287
VCharles Bradley
p6288
ag3
aa(lp6289
VJennifer Jordan
p6290
ag3
aa(lp6291
VAngela Dixon
p6292
ag3
aa(lp6293
VKyle Romero
p6294
ag3
aa(lp6295
VBenjamin Garrett
p6296
ag3
aa(lp6297
VRobert Elliott
p6298
ag3
aa(lp6299
VLuis Delgado
p6300
ag3
aa(lp6301
VDanielle Massey
p6302
ag3
aa(lp6303
VStephanie Strong
p6304
ag3
aa(lp6305
VJennifer Lopez
p6306
ag3
aa(lp6307
VMary Powell
p6308
ag3
aa(lp6309
VBenjamin Simmons
p6310
ag3
aa(lp6311
VKimberly Smith MD
p6312
ag3
aa(lp6313
VLori Lozano
p6314
ag3
aa(lp6315
VMark Johnson
p6316
ag3
aa(lp6317
VHolly Silva
p6318
ag3
aa(lp6319
VMelissa Thomas
p6320
ag3
aa(lp6321
VJesse Caldwell
p6322
ag3
aa(lp6323
VDaniel Anderson
p6324
ag3
aa(lp6325
VJamie Frederick
p6326
ag3
aa(lp6327
VMelissa Anderson
p6328
ag12
aa(lp6329
VHeather Blair
p6330
ag3
aa(lp6331
VBenjamin Osborne
p6332
ag3
aa(lp6333
VWilliam Thompson
p6334
ag3
aa(lp6335
VLucas Garcia
p6336
ag3
aa(lp6337
VLisa Kelley
p6338
ag3
aa(lp6339
VVanessa Morris
p6340
ag3
aa(lp6341
VJamie Daniel
p6342
ag3
aa(lp6343
VKayla Williams
p6344
ag3
aa(lp6345
VAngela Fox
p6346
ag3
aa(lp6347
VKaitlin Martin
p6348
ag12
aa(lp6349
VMiranda Vasquez
p6350
ag3
aa(lp6351
VJustin Pitts
p6352
ag3
aa(lp6353
VAdam Williams
p6354
ag3
aa(lp6355
VMr. John Parks
p6356
ag3
aa(lp6357
VVincent Gordon
p6358
ag3
aa(lp6359
VJo Reed
p6360
ag3
aa(lp6361
VMary Tucker
p6362
ag3
aa(lp6363
VSherry Reed
p6364
ag3
aa(lp6365
VCody Anderson
p6366
ag3
aa(lp6367
VRebecca Ferguson
p6368
ag3
aa(lp6369
VAbigail Hill
p6370
ag12
aa(lp6371
VGloria Bailey
p6372
ag3
aa(lp6373
VNicholas Pena
p6374
ag3
aa(lp6375
VEdward Wolfe
p6376
ag3
aa(lp6377
VPamela Levy
p6378
ag3
aa(lp6379
VAaron Dunn
p6380
ag3
aa(lp6381
VMorgan Cole
p6382
ag3
aa(lp6383
VTeresa Vaughn
p6384
ag3
aa(lp6385
VAbigail Calderon
p6386
ag3
aa(lp6387
VKaren Copeland
p6388
ag3
aa(lp6389
VDavid Jackson
p6390
ag3
aa(lp6391
VRachael Hahn
p6392
ag3
aa(lp6393
VPatricia Gray
p6394
ag3
aa(lp6395
VLuis Gallagher
p6396
ag3
aa(lp6397
VMarissa Middleton
p6398
ag3
aa(lp6399
VLisa Bartlett
p6400
ag3
aa(lp6401
VKayla Edwards
p6402
ag3
aa(lp6403
VLorraine Fields
p6404
ag3
aa(lp6405
VBrandon Martinez
p6406
ag3
aa(lp6407
VJennifer Oliver
p6408
ag3
aa(lp6409
VJustin Roberson
p6410
ag3
aa(lp6411
VAlan Payne
p6412
ag3
aa(lp6413
VVirginia Jefferson
p6414
ag12
aa(lp6415
VTracy Cruz
p6416
ag3
aa(lp6417
VScott Rodgers
p6418
ag3
aa(lp6419
VTasha Ryan
p6420
ag3
aa(lp6421
VStacey Bishop
p6422
ag3
aa(lp6423
VLacey Frey
p6424
ag3
aa(lp6425
VMarilyn Henry
p6426
ag3
aa(lp6427
VTimothy Walters
p6428
ag3
aa(lp6429
VJustin Bishop
p6430
ag3
aa(lp6431
VMiranda Wilson
p6432
ag3
aa(lp6433
VJacob Gonzales
p6434
ag3
aa(lp6435
VGregory Chavez
p6436
ag3
aa(lp6437
VMatthew Garcia
p6438
ag3
aa(lp6439
VRebecca Roberson
p6440
ag3
aa(lp6441
VDanielle Anderson
p6442
ag3
aa(lp6443
VMr. Ricardo Scott
p6444
ag12
aa(lp6445
VSamantha Miller
p6446
ag3
aa(lp6447
VGregory Mitchell
p6448
ag3
aa(lp6449
VDavid Hoffman
p6450
ag3
aa(lp6451
VRebecca Arnold
p6452
ag3
aa(lp6453
VSteven Hernandez
p6454
ag3
aa(lp6455
VRobert Wood
p6456
ag3
aa(lp6457
VAngie Watson
p6458
ag3
aa(lp6459
VMichael Harrison
p6460
ag3
aa(lp6461
VCharlene Gardner
p6462
ag3
aa(lp6463
VLisa Richardson
p6464
ag12
aa(lp6465
VCarolyn Carlson
p6466
ag3
aa(lp6467
VLisa Hill
p6468
ag3
aa(lp6469
VBenjamin James
p6470
ag3
aa(lp6471
VAmy Bowen
p6472
ag3
aa(lp6473
VHeather Clark
p6474
ag3
aa(lp6475
VPedro Lynn
p6476
ag3
aa(lp6477
VShelly Ochoa
p6478
ag3
aa(lp6479
VPhillip Vargas
p6480
ag3
aa(lp6481
VPhilip Lee
p6482
ag3
aa(lp6483
VMichael Conner
p6484
ag3
aa(lp6485
VSteven Swanson
p6486
ag3
aa(lp6487
VMr. Benjamin Petty
p6488
ag3
aa(lp6489
VScott Butler
p6490
ag3
aa(lp6491
VGary Watson
p6492
ag3
aa(lp6493
VAshley Guzman
p6494
ag3
aa(lp6495
VMelissa Nguyen
p6496
ag3
aa(lp6497
VJames Williams
p6498
ag3
aa(lp6499
VChristina Lamb
p6500
ag3
aa(lp6501
VJeffery Pittman
p6502
ag3
aa(lp6503
VRobert Thomas
p6504
ag12
aa(lp6505
VCheryl Watkins
p6506
ag3
aa(lp6507
VGary Hendricks
p6508
ag3
aa(lp6509
VMichael White
p6510
ag3
aa(lp6511
VCheryl Luna
p6512
ag3
aa(lp6513
VKathryn Rodriguez
p6514
ag3
aa(lp6515
VStephanie Ho
p6516
ag3
aa(lp6517
VAmanda Collins
p6518
ag12
aa(lp6519
VGeorge Herrera
p6520
ag3
aa(lp6521
VTeresa Herrera
p6522
ag3
aa(lp6523
VAlexander Harris
p6524
ag3
aa(lp6525
VTamara Garcia
p6526
ag3
aa(lp6527
VJacqueline Harrison
p6528
ag3
aa(lp6529
VMichael York
p6530
ag3
aa(lp6531
VMeghan Rivera
p6532
ag3
aa(lp6533
VYvette Vance
p6534
ag3
aa(lp6535
VMr. Richard Gibson
p6536
ag3
aa(lp6537
VCalvin Morgan
p6538
ag3
aa(lp6539
VJack Smith
p6540
ag3
aa(lp6541
VFrank Foster
p6542
ag3
aa(lp6543
VBradley Wilson
p6544
ag3
aa(lp6545
VMary Walker
p6546
ag3
aa(lp6547
VRebecca May
p6548
ag3
aa(lp6549
VChristopher Wright
p6550
ag3
aa(lp6551
VFelicia Watson
p6552
ag3
aa(lp6553
VEmily Campbell
p6554
ag3
aa(lp6555
VMelissa Bernard
p6556
ag12
aa(lp6557
VJessica Gonzalez
p6558
ag3
aa(lp6559
VMichael Hunter
p6560
ag3
aa(lp6561
VBrian Simmons
p6562
ag3
aa(lp6563
VWilliam Smith
p6564
ag3
aa(lp6565
VJose Yu
p6566
ag3
aa(lp6567
VJeremiah Walter
p6568
ag3
aa(lp6569
VWilliam Banks
p6570
ag3
aa(lp6571
VJennifer Harris
p6572
ag3
aa(lp6573
VTimothy Lang
p6574
ag12
aa(lp6575
VAngel Brown
p6576
ag3
aa(lp6577
VAnthony Washington
p6578
ag3
aa(lp6579
VMichelle Davis
p6580
ag3
aa(lp6581
VBeth Gutierrez
p6582
ag3
aa(lp6583
VErik Stevens
p6584
ag3
aa(lp6585
VJohn Poole
p6586
ag3
aa(lp6587
VDaniel Murphy
p6588
ag3
aa(lp6589
VMichelle Jones
p6590
ag3
aa(lp6591
VGina Robinson
p6592
ag3
aa(lp6593
VChris Mcfarland
p6594
ag3
aa(lp6595
VWilliam Reynolds
p6596
ag3
aa(lp6597
VStephanie Allen
p6598
ag3
aa(lp6599
VJessica Fields
p6600
ag12
aa(lp6601
VMelissa Wilson
p6602
ag3
aa(lp6603
VJames Allen
p6604
ag3
aa(lp6605
VLisa Webb
p6606
ag3
aa(lp6607
VKathy Jacobs
p6608
ag3
aa(lp6609
VStephen Clayton
p6610
ag3
aa(lp6611
VGeorge Smith
p6612
ag3
aa(lp6613
VNatalie Harvey
p6614
ag3
aa(lp6615
VZachary Winters
p6616
ag3
aa(lp6617
VAndre Gill
p6618
ag3
aa(lp6619
VElizabeth Clark
p6620
ag3
aa(lp6621
VLisa Willis
p6622
ag3
aa(lp6623
VAngela Miller
p6624
ag3
aa(lp6625
VAntonio Long
p6626
ag3
aa(lp6627
VRiley Duran
p6628
ag3
aa(lp6629
VLarry Weaver
p6630
ag3
aa(lp6631
VGabriella Murphy
p6632
ag3
aa(lp6633
VJanet Holmes
p6634
ag3
aa(lp6635
VEric Contreras
p6636
ag3
aa(lp6637
VKatie Bennett
p6638
ag12
aa(lp6639
VJohn Cabrera
p6640
ag3
aa(lp6641
VChristian James
p6642
ag3
aa(lp6643
VMelissa Murphy
p6644
ag3
aa(lp6645
VKelsey Smith
p6646
ag12
aa(lp6647
VMelissa Shaw
p6648
ag3
aa(lp6649
VKristine Smith
p6650
ag3
aa(lp6651
VRebecca Allen
p6652
ag3
aa(lp6653
VDaniel Schmidt
p6654
ag3
aa(lp6655
VJorge Perez
p6656
ag3
aa(lp6657
VNicole Patterson
p6658
ag3
aa(lp6659
VStephanie Harrell
p6660
ag12
aa(lp6661
VDale Humphrey
p6662
ag3
aa(lp6663
VJennifer Garza
p6664
ag3
aa(lp6665
VJulia Garrison
p6666
ag3
aa(lp6667
VDr. Christopher Cook
p6668
ag3
aa(lp6669
VHeather Sims
p6670
ag3
aa(lp6671
VDeanna Curry
p6672
ag12
aa(lp6673
VAmy Young
p6674
ag3
aa(lp6675
VPaul Green
p6676
ag3
aa(lp6677
VTeresa Pruitt
p6678
ag3
aa(lp6679
VGary Page
p6680
ag3
aa(lp6681
VMatthew Kline
p6682
ag3
aa(lp6683
VDebra Young
p6684
ag3
aa(lp6685
VAshlee Sims
p6686
ag12
aa(lp6687
VMichelle Stanley
p6688
ag3
aa(lp6689
VRobert Green
p6690
ag3
aa(lp6691
VEric Brown
p6692
ag3
aa(lp6693
VCrystal Orozco
p6694
ag3
aa(lp6695
VMatthew Foley
p6696
ag3
aa(lp6697
VMiss Shannon Sosa
p6698
ag3
aa(lp6699
VAmanda Olson
p6700
ag3
aa(lp6701
VKenneth Fernandez
p6702
ag12
aa(lp6703
VPatricia Gonzalez
p6704
ag3
aa(lp6705
VErica Franklin
p6706
ag3
aa(lp6707
VVicki Joseph
p6708
ag3
aa(lp6709
VElizabeth Brown
p6710
ag3
aa(lp6711
VMichael Miller
p6712
ag3
aa(lp6713
VAshley Patton
p6714
ag3
aa(lp6715
VMichael Green
p6716
ag3
aa(lp6717
VJames Wheeler
p6718
ag3
aa(lp6719
VChristopher Nicholson
p6720
ag3
aa(lp6721
VSeth Gill
p6722
ag3
aa(lp6723
VMargaret Miranda
p6724
ag3
aa(lp6725
VPatricia Matthews
p6726
ag3
aa(lp6727
VDr. Gregory Scott
p6728
ag3
aa(lp6729
VSharon Gonzalez
p6730
ag3
aa(lp6731
VSamuel Mitchell
p6732
ag3
aa(lp6733
VMelissa Hill
p6734
ag3
aa(lp6735
VThomas Mcgrath
p6736
ag3
aa(lp6737
VCory Wong
p6738
ag3
aa(lp6739
VBarbara Brown
p6740
ag3
aa(lp6741
VRobin Cruz
p6742
ag3
aa(lp6743
VGlen Griffith
p6744
ag3
aa(lp6745
VAutumn Miller
p6746
ag3
aa(lp6747
VTimothy Harris
p6748
ag3
aa(lp6749
VKristen Graham
p6750
ag3
aa(lp6751
VRuth Howard
p6752
ag3
aa(lp6753
VMrs. Breanna Weber PhD
p6754
ag3
aa(lp6755
VJustin Carpenter
p6756
ag3
aa(lp6757
VAmanda Glenn
p6758
ag3
aa(lp6759
VMarvin Mooney
p6760
ag3
aa(lp6761
VJason Grant
p6762
ag3
aa(lp6763
VKatie Lucas
p6764
ag3
aa(lp6765
VCesar Harris
p6766
ag3
aa(lp6767
VRobert Miller
p6768
ag3
aa(lp6769
VAmber Stafford
p6770
ag3
aa(lp6771
VJason Wilson
p6772
ag3
aa(lp6773
VConnor Carroll
p6774
ag3
aa(lp6775
VKelly Barnes
p6776
ag3
aa(lp6777
VJames Warren
p6778
ag12
aa(lp6779
VBrent Gomez
p6780
ag3
aa(lp6781
VMonica Reyes
p6782
ag3
aa(lp6783
VRachel Ibarra
p6784
ag3
aa(lp6785
VMary Marshall
p6786
ag3
aa(lp6787
VAaron Hill
p6788
ag3
aa(lp6789
VFrederick Mcintosh
p6790
ag3
aa(lp6791
VPatricia Rodriguez
p6792
ag3
aa(lp6793
VNatalie Armstrong
p6794
ag3
aa(lp6795
VMichelle Campbell MD
p6796
ag3
aa(lp6797
VElizabeth Fitzpatrick
p6798
ag3
aa(lp6799
VNicholas Fowler
p6800
ag3
aa(lp6801
VJames Brooks
p6802
ag3
aa(lp6803
VNathan Chandler
p6804
ag3
aa(lp6805
VBarry Thompson
p6806
ag3
aa(lp6807
VAaron Lee
p6808
ag3
aa(lp6809
VBrian Lee
p6810
ag3
aa(lp6811
VMegan Lowe DVM
p6812
ag3
aa(lp6813
VStephen Allen
p6814
ag12
aa(lp6815
VLaura Robertson
p6816
ag3
aa(lp6817
VGina Stevens
p6818
ag3
aa(lp6819
VFelicia Mccoy
p6820
ag3
aa(lp6821
VJoel Bowers
p6822
ag3
aa(lp6823
VJoseph Estes
p6824
ag3
aa(lp6825
VAshley Rollins
p6826
ag3
aa(lp6827
VHeather Mason
p6828
ag3
aa(lp6829
VMelissa Miller
p6830
ag3
aa(lp6831
VJill Hines
p6832
ag3
aa(lp6833
VAmber Ramirez
p6834
ag3
aa(lp6835
VEdward Morgan
p6836
ag3
aa(lp6837
VKristopher Snow
p6838
ag12
aa(lp6839
VJames Gonzalez
p6840
ag3
aa(lp6841
VElizabeth Fleming
p6842
ag3
aa(lp6843
VRyan Ortega
p6844
ag12
aa(lp6845
VRyan Morris
p6846
ag3
aa(lp6847
VPeter Taylor
p6848
ag3
aa(lp6849
VYolanda Rhodes
p6850
ag12
aa(lp6851
VLori Flowers
p6852
ag3
aa(lp6853
VKaren Walker
p6854
ag3
aa(lp6855
VTodd Oneal
p6856
ag3
aa(lp6857
VSteve Ramirez
p6858
ag3
aa(lp6859
VGeorge Dunn
p6860
ag3
aa(lp6861
VChristine Smith
p6862
ag3
aa(lp6863
VAngela Perez
p6864
ag12
aa(lp6865
VNatalie Harris
p6866
ag3
aa(lp6867
VJasmine Johnson
p6868
ag3
aa(lp6869
VPhillip Roth
p6870
ag3
aa(lp6871
VMrs. Joanna Cox MD
p6872
ag3
aa(lp6873
VJoshua Melton
p6874
ag12
aa(lp6875
VCrystal Harmon
p6876
ag3
aa(lp6877
VKelli Salazar
p6878
ag3
aa(lp6879
VAnthony Rubio
p6880
ag3
aa(lp6881
VAdam Mendoza
p6882
ag3
aa(lp6883
VJohn Tran
p6884
ag3
aa(lp6885
VDouglas Quinn
p6886
ag3
aa(lp6887
VSheena Carlson
p6888
ag3
aa(lp6889
VBrandon Kaufman
p6890
ag3
aa(lp6891
VCharlotte Spence
p6892
ag3
aa(lp6893
VCarol Bennett
p6894
ag3
aa(lp6895
VKimberly Moore
p6896
ag3
aa(lp6897
VCarolyn Sanders
p6898
ag3
aa(lp6899
VBradley Peterson
p6900
ag12
aa(lp6901
VScott Peterson
p6902
ag3
aa(lp6903
VMary Collins
p6904
ag3
aa(lp6905
VFrances Moreno
p6906
ag3
aa(lp6907
VMr. Robert Weaver
p6908
ag3
aa(lp6909
VJacob Underwood
p6910
ag3
aa(lp6911
VPatricia Evans
p6912
ag3
aa(lp6913
VDavid Cohen
p6914
ag3
aa(lp6915
VMichelle Parsons
p6916
ag3
aa(lp6917
VSamantha Hogan
p6918
ag3
aa(lp6919
VNicole Bush
p6920
ag3
aa(lp6921
VRebecca Patel
p6922
ag3
aa(lp6923
VDr. Samantha Carey
p6924
ag3
aa(lp6925
VCatherine Zuniga
p6926
ag3
aa(lp6927
VRachel Nelson
p6928
ag3
aa(lp6929
VKristen Wright
p6930
ag3
aa(lp6931
VBrenda Braun
p6932
ag3
aa(lp6933
VFranklin Simmons
p6934
ag3
aa(lp6935
VAaron Brown Jr.
p6936
ag3
aa(lp6937
VPamela Washington
p6938
ag3
aa(lp6939
VJessica Larsen
p6940
ag3
aa(lp6941
VJamie Ortiz
p6942
ag3
aa(lp6943
VMegan Williams
p6944
ag3
aa(lp6945
VMaureen Moore
p6946
ag3
aa(lp6947
VChristopher Hardy
p6948
ag12
aa(lp6949
VMiss Brittany Hartman DVM
p6950
ag3
aa(lp6951
VGeorge Foster MD
p6952
ag3
aa(lp6953
VRobert Ramos
p6954
ag3
aa(lp6955
VEdward Williams
p6956
ag3
aa(lp6957
VRobert Nguyen
p6958
ag3
aa(lp6959
VTimothy Davila
p6960
ag3
aa(lp6961
VJason Gentry
p6962
ag3
aa(lp6963
VMary Mooney
p6964
ag3
aa(lp6965
VLauren Davis
p6966
ag3
aa(lp6967
VDiamond Jenkins
p6968
ag3
aa(lp6969
VLuke Young
p6970
ag3
aa(lp6971
VLarry Merritt
p6972
ag3
aa(lp6973
VGene Meza
p6974
ag3
aa(lp6975
VChristopher Mills
p6976
ag3
aa(lp6977
VMichelle Wright
p6978
ag3
aa(lp6979
VKim Carey
p6980
ag12
aa(lp6981
VLinda Moore
p6982
ag3
aa(lp6983
VChristopher Sanchez
p6984
ag3
aa(lp6985
VRyan Pratt
p6986
ag3
aa(lp6987
VCraig Smith
p6988
ag3
aa(lp6989
VMichael Wiggins
p6990
ag3
aa(lp6991
VElizabeth White
p6992
ag3
aa(lp6993
VSandra Miller
p6994
ag3
aa(lp6995
VJohn Henry
p6996
ag3
aa(lp6997
VCarl Holt
p6998
ag3
aa(lp6999
VJohn Gonzalez
p7000
ag3
aa(lp7001
VMichael Berg
p7002
ag3
aa(lp7003
VGary Salazar
p7004
ag3
aa(lp7005
VPatrick Fischer
p7006
ag3
aa(lp7007
VErik Sanders
p7008
ag3
aa(lp7009
VBruce Gonzalez
p7010
ag3
aa(lp7011
VRaymond Pratt
p7012
ag3
aa(lp7013
VErnest Howell
p7014
ag3
aa(lp7015
VLuis Alvarado
p7016
ag3
aa(lp7017
VCrystal Miller
p7018
ag3
aa(lp7019
VRicky Fritz
p7020
ag3
aa(lp7021
VLauren Robbins
p7022
ag3
aa(lp7023
VAmy Spears
p7024
ag3
aa(lp7025
VPaul Riddle
p7026
ag3
aa(lp7027
VJulie White
p7028
ag3
aa(lp7029
VKenneth Matthews
p7030
ag3
aa(lp7031
VBernard Reeves
p7032
ag3
aa(lp7033
VMadeline Morrow
p7034
ag3
aa(lp7035
VAshley Mccarthy
p7036
ag12
aa(lp7037
VValerie Huynh
p7038
ag3
aa(lp7039
VChristopher Myers
p7040
ag12
aa(lp7041
VDonald Hill
p7042
ag3
aa(lp7043
VElizabeth Reed
p7044
ag3
aa(lp7045
VPamela Durham
p7046
ag3
aa(lp7047
VLauren Clarke
p7048
ag3
aa(lp7049
VEric Sandoval
p7050
ag3
aa(lp7051
VJonathan Williams
p7052
ag3
aa(lp7053
VMichael Ramos
p7054
ag3
aa(lp7055
VBrenda Nicholson
p7056
ag3
aa(lp7057
VFrederick Curry
p7058
ag3
aa(lp7059
VJoe Moore
p7060
ag3
aa(lp7061
VElizabeth Foster
p7062
ag3
aa(lp7063
VMark Cooke
p7064
ag3
aa(lp7065
VJoy Hernandez
p7066
ag3
aa(lp7067
VMs. Victoria Little
p7068
ag12
aa(lp7069
VPamela Wallace
p7070
ag3
aa(lp7071
VKyle Parsons
p7072
ag3
aa(lp7073
VRobert Snyder
p7074
ag3
aa(lp7075
VTimothy Reynolds
p7076
ag3
aa(lp7077
VCassandra Hunter
p7078
ag3
aa(lp7079
VAlbert Roman
p7080
ag3
aa(lp7081
VMr. David Mcdaniel
p7082
ag3
aa(lp7083
VDerrick Brown
p7084
ag3
aa(lp7085
VRobert Hart
p7086
ag3
aa(lp7087
VJacqueline Moore
p7088
ag12
aa(lp7089
VStacy Clark
p7090
ag3
aa(lp7091
VKatie Silva
p7092
ag3
aa(lp7093
VDiane Mendoza
p7094
ag3
aa(lp7095
VSeth Garcia
p7096
ag3
aa(lp7097
VZachary Rice
p7098
ag3
aa(lp7099
VChristine Butler
p7100
ag3
aa(lp7101
VJessica Wu
p7102
ag3
aa(lp7103
VTonya Foley
p7104
ag3
aa(lp7105
VDerek Small
p7106
ag3
aa(lp7107
VPhyllis Henderson
p7108
ag3
aa(lp7109
VCrystal Escobar
p7110
ag3
aa(lp7111
VDerrick Pitts
p7112
ag3
aa(lp7113
VJustin Montoya
p7114
ag3
aa(lp7115
VCharles Powell
p7116
ag3
aa(lp7117
VAnn Lee
p7118
ag12
aa(lp7119
VMelissa White
p7120
ag3
aa(lp7121
VSusan Rivera
p7122
ag3
aa(lp7123
VKirsten Martinez
p7124
ag3
aa(lp7125
VAmanda Baxter
p7126
ag3
aa(lp7127
VLaura Erickson
p7128
ag3
aa(lp7129
VJoel Lynch
p7130
ag3
aa(lp7131
VJohnathan Lane
p7132
ag3
aa(lp7133
VJustin Lambert
p7134
ag3
aa(lp7135
VRhonda Lloyd
p7136
ag3
aa(lp7137
VMark Newman
p7138
ag3
aa(lp7139
VRonald Hernandez
p7140
ag3
aa(lp7141
VLindsey Simmons
p7142
ag3
aa(lp7143
VRobert Jones
p7144
ag3
aa(lp7145
VJason Cole
p7146
ag12
aa(lp7147
VRoger Ware
p7148
ag3
aa(lp7149
VBrittany Gonzalez
p7150
ag3
aa(lp7151
VJennifer Flores
p7152
ag3
aa(lp7153
VSuzanne Mitchell
p7154
ag3
aa(lp7155
VAnna Reyes
p7156
ag3
aa(lp7157
VDenise Lopez
p7158
ag3
aa(lp7159
VYolanda Anderson
p7160
ag3
aa(lp7161
VShelby Miller
p7162
ag3
aa(lp7163
VLeslie Morris
p7164
ag3
aa(lp7165
VCharles Hopkins
p7166
ag3
aa(lp7167
VDylan Hines
p7168
ag3
aa(lp7169
VMichael Klein
p7170
ag3
aa(lp7171
VVictoria Morales
p7172
ag3
aa(lp7173
VRachel Moore
p7174
ag3
aa(lp7175
VJames Patrick
p7176
ag3
aa(lp7177
VSamuel Barrett
p7178
ag3
aa(lp7179
VMatthew Clark
p7180
ag3
aa(lp7181
VJamie Hawkins
p7182
ag3
aa(lp7183
VKatherine Jones
p7184
ag3
aa(lp7185
VCourtney Kirby
p7186
ag12
aa(lp7187
VLinda Gallagher
p7188
ag12
aa(lp7189
VStacy Reed
p7190
ag3
aa(lp7191
VRachael Walsh
p7192
ag3
aa(lp7193
VDaniel Hall
p7194
ag3
aa(lp7195
VAndrea Simpson
p7196
ag3
aa(lp7197
VPeter Benitez
p7198
ag3
aa(lp7199
VDr. Michael White
p7200
ag12
aa(lp7201
VJoshua Cunningham
p7202
ag3
aa(lp7203
VMichelle Carney
p7204
ag3
aa(lp7205
VKaren Patton
p7206
ag3
aa(lp7207
VAmy Allen
p7208
ag3
aa(lp7209
VOlivia Little
p7210
ag3
aa(lp7211
VJessica Miles
p7212
ag3
aa(lp7213
VKatelyn Taylor
p7214
ag12
aa(lp7215
VChristie Allen
p7216
ag3
aa(lp7217
VMrs. Emma Edwards
p7218
ag3
aa(lp7219
VJesus Lee
p7220
ag3
aa(lp7221
VStacey Pena
p7222
ag3
aa(lp7223
VBetty Watson
p7224
ag3
aa(lp7225
VJustin Price
p7226
ag3
aa(lp7227
VAmy Rodgers
p7228
ag3
aa(lp7229
VAustin Roberts
p7230
ag3
aa(lp7231
VJames Perry
p7232
ag3
aa(lp7233
VGary Bell
p7234
ag3
aa(lp7235
VJohnny Harris
p7236
ag3
aa(lp7237
VJustin Dougherty
p7238
ag3
aa(lp7239
VCarl Salazar
p7240
ag3
aa(lp7241
VDebbie Combs
p7242
ag3
aa(lp7243
VHeather Weber
p7244
ag3
aa(lp7245
VJeffrey Collins
p7246
ag3
aa(lp7247
VKyle Jimenez
p7248
ag3
aa(lp7249
VMarcus Carpenter
p7250
ag3
aa(lp7251
VLori Parker
p7252
ag3
aa(lp7253
VCrystal Burns
p7254
ag3
aa(lp7255
VBrittany Smith
p7256
ag3
aa(lp7257
VVincent Smith
p7258
ag3
aa(lp7259
VRobert Campbell
p7260
ag3
aa(lp7261
VMichelle Smith
p7262
ag3
aa(lp7263
VMelissa Wells
p7264
ag3
aa(lp7265
VShelley Campbell
p7266
ag3
aa(lp7267
VRobert Jones
p7268
ag3
aa(lp7269
VAnna Knight
p7270
ag3
aa(lp7271
VTimothy Miller
p7272
ag3
aa(lp7273
VAmanda Smith
p7274
ag12
aa(lp7275
VLeah Park
p7276
ag3
aa(lp7277
VDaniel Hopkins
p7278
ag3
aa(lp7279
VDavid Thompson
p7280
ag3
aa(lp7281
VJennifer Johnson
p7282
ag3
aa(lp7283
VRyan Hernandez Jr.
p7284
ag3
aa(lp7285
VJay Rocha
p7286
ag3
aa(lp7287
VNicolas Carter
p7288
ag3
aa(lp7289
VTommy Holden
p7290
ag3
aa(lp7291
VTracey Campbell
p7292
ag3
aa(lp7293
VVictor Carrillo
p7294
ag3
aa(lp7295
VErica Taylor
p7296
ag3
aa(lp7297
VDouglas Adams
p7298
ag3
aa(lp7299
VAshley Stewart
p7300
ag3
aa(lp7301
VShane Cochran
p7302
ag3
aa(lp7303
VMelissa Ramirez
p7304
ag3
aa(lp7305
VKirsten Sullivan
p7306
ag3
aa(lp7307
VDiana Casey
p7308
ag3
aa(lp7309
VStanley Santiago
p7310
ag3
aa(lp7311
VJohn Preston
p7312
ag3
aa(lp7313
VChristopher Harvey
p7314
ag3
aa(lp7315
VAmanda Drake
p7316
ag12
aa(lp7317
VDebbie Reyes
p7318
ag3
aa(lp7319
VRebekah Nguyen
p7320
ag3
aa(lp7321
VJason Garcia
p7322
ag3
aa(lp7323
VKevin Miller
p7324
ag3
aa(lp7325
VKaitlin Berg
p7326
ag3
aa(lp7327
VKim Anderson
p7328
ag3
aa(lp7329
VTimothy Ramirez
p7330
ag3
aa(lp7331
VNicholas Knox
p7332
ag3
aa(lp7333
VPatrick Neal
p7334
ag3
aa(lp7335
VThomas Brennan
p7336
ag3
aa(lp7337
VAngela Moore
p7338
ag3
aa(lp7339
VMichael Moore
p7340
ag3
aa(lp7341
VJoyce Rice
p7342
ag3
aa(lp7343
VAngela Smith
p7344
ag3
aa(lp7345
VAntonio Anderson
p7346
ag3
aa(lp7347
VKristine Lucero
p7348
ag3
aa(lp7349
VDonna Matthews
p7350
ag3
aa(lp7351
VLinda Ray
p7352
ag3
aa(lp7353
VVictor Garcia
p7354
ag3
aa(lp7355
VDonald Hayes
p7356
ag12
aa(lp7357
VShawn Thompson
p7358
ag3
aa(lp7359
VBrian Wilson
p7360
ag3
aa(lp7361
VCalvin Montoya
p7362
ag3
aa(lp7363
VJennifer Brown DDS
p7364
ag3
aa(lp7365
VMichael Castro
p7366
ag3
aa(lp7367
VJames Cline
p7368
ag3
aa(lp7369
VJason Page
p7370
ag3
aa(lp7371
VPerry Anderson
p7372
ag3
aa(lp7373
VJennifer Scott
p7374
ag3
aa(lp7375
VSandra Flores
p7376
ag3
aa(lp7377
VGina Phillips
p7378
ag3
aa(lp7379
VJennifer Neal
p7380
ag3
aa(lp7381
VCathy Mclaughlin
p7382
ag3
aa(lp7383
VLinda Sanchez
p7384
ag3
aa(lp7385
VBrittney Wilson
p7386
ag3
aa(lp7387
VAnthony Barton
p7388
ag3
aa(lp7389
VCandice Robbins
p7390
ag3
aa(lp7391
VPamela Ramirez
p7392
ag3
aa(lp7393
VAustin Hernandez
p7394
ag12
aa(lp7395
VJanet Terry
p7396
ag3
aa(lp7397
VCarrie Baker
p7398
ag3
aa(lp7399
VJose Greer
p7400
ag3
aa(lp7401
VRegina Kent
p7402
ag3
aa(lp7403
VCheyenne Guzman
p7404
ag3
aa(lp7405
VJoshua Garcia
p7406
ag3
aa(lp7407
VKatrina Turner
p7408
ag3
aa(lp7409
VAngela Hernandez
p7410
ag3
aa(lp7411
VJermaine Velasquez
p7412
ag3
aa(lp7413
VTerry Jones
p7414
ag3
aa(lp7415
VAnthony Bell
p7416
ag3
aa(lp7417
VAmy Garrison
p7418
ag3
aa(lp7419
VRobert Davis
p7420
ag3
aa(lp7421
VTimothy Garcia Jr.
p7422
ag3
aa(lp7423
VDonald Pennington
p7424
ag3
aa(lp7425
VHeather Lee
p7426
ag3
aa(lp7427
VDaniel Walker
p7428
ag3
aa(lp7429
VWilliam Church
p7430
ag3
aa(lp7431
VDaniel Martin
p7432
ag3
aa(lp7433
VLisa Johnson
p7434
ag3
aa(lp7435
VCassidy Castillo
p7436
ag3
aa(lp7437
VBrittany Smith
p7438
ag3
aa(lp7439
VWilliam Page
p7440
ag3
aa(lp7441
VMargaret Ferguson
p7442
ag3
aa(lp7443
VReginald Campbell
p7444
ag3
aa(lp7445
VMelissa Hooper
p7446
ag3
aa(lp7447
VTeresa Morrow
p7448
ag3
aa(lp7449
VRaymond Cobb
p7450
ag3
aa(lp7451
VVanessa Garcia
p7452
ag3
aa(lp7453
VWayne Mosley
p7454
ag3
aa(lp7455
VJames Bennett
p7456
ag3
aa(lp7457
VMichael White
p7458
ag3
aa(lp7459
VRichard Wagner
p7460
ag3
aa(lp7461
VAndrew Knapp
p7462
ag3
aa(lp7463
VSusan Smith
p7464
ag3
aa(lp7465
VAmanda Sanders
p7466
ag3
aa(lp7467
VJustin Schultz
p7468
ag3
aa(lp7469
VLaura Bradley
p7470
ag3
aa(lp7471
VKim Adams
p7472
ag3
aa(lp7473
VZachary Trevino
p7474
ag3
aa(lp7475
VAlison Lee
p7476
ag3
aa(lp7477
VMatthew English
p7478
ag3
aa(lp7479
VColin Daniels
p7480
ag3
aa(lp7481
VAmber Oconnor
p7482
ag3
aa(lp7483
VKaren Sims
p7484
ag3
aa(lp7485
VMiranda Patel
p7486
ag3
aa(lp7487
VRebecca Hendricks DDS
p7488
ag3
aa(lp7489
VVictoria Torres
p7490
ag3
aa(lp7491
VSteven Wade
p7492
ag3
aa(lp7493
VSusan Phillips
p7494
ag3
aa(lp7495
VDerek Cohen
p7496
ag3
aa(lp7497
VMichael Eaton
p7498
ag3
aa(lp7499
VMr. Melvin Escobar
p7500
ag3
aa(lp7501
VSonya Craig
p7502
ag3
aa(lp7503
VJared Smith
p7504
ag3
aa(lp7505
VBobby Morales
p7506
ag3
aa(lp7507
VKim Pope
p7508
ag3
aa(lp7509
VCharles Martinez
p7510
ag3
aa(lp7511
VKevin Johnson
p7512
ag3
aa(lp7513
VCynthia Brock
p7514
ag3
aa(lp7515
VHunter Thompson
p7516
ag3
aa(lp7517
VMichael Mason DDS
p7518
ag3
aa(lp7519
VAaron Lewis
p7520
ag3
aa(lp7521
VTanner Chapman
p7522
ag3
aa(lp7523
VDonna Steele
p7524
ag3
aa(lp7525
VTodd Macdonald
p7526
ag3
aa(lp7527
VTony Harper
p7528
ag3
aa(lp7529
VJames Pierce Jr.
p7530
ag3
aa(lp7531
VMalik Jensen
p7532
ag3
aa(lp7533
VChristopher Richardson
p7534
ag3
aa(lp7535
VChris Price
p7536
ag3
aa(lp7537
VLarry Howard
p7538
ag3
aa(lp7539
VHeather Velasquez
p7540
ag3
aa(lp7541
VDonald Cunningham
p7542
ag3
aa(lp7543
VMelissa Stark
p7544
ag12
aa(lp7545
VMrs. Joann Simpson
p7546
ag3
aa(lp7547
VJessica Carrillo
p7548
ag3
aa(lp7549
VCheryl Gonzalez MD
p7550
ag3
aa(lp7551
VRuth Beard
p7552
ag3
aa(lp7553
VPaul Houston
p7554
ag3
aa(lp7555
VJason Moore
p7556
ag3
aa(lp7557
VBradley Moore
p7558
ag3
aa(lp7559
VPatricia Briggs
p7560
ag3
aa(lp7561
VNatasha Clark
p7562
ag3
aa(lp7563
VChristopher Todd
p7564
ag3
aa(lp7565
VCatherine Ho
p7566
ag3
aa(lp7567
VSarah Smith
p7568
ag3
aa(lp7569
VKatelyn Jenkins
p7570
ag3
aa(lp7571
VArthur Avila
p7572
ag3
aa(lp7573
VChristopher Cooper
p7574
ag3
aa(lp7575
VBrian Reynolds
p7576
ag3
aa(lp7577
VLeslie Moran
p7578
ag3
aa(lp7579
VKathryn Reed
p7580
ag3
aa(lp7581
VDavid Sanchez
p7582
ag3
aa(lp7583
VHeather Hayes
p7584
ag3
aa(lp7585
VDebra Gomez MD
p7586
ag12
aa(lp7587
VRachel Hall
p7588
ag3
aa(lp7589
VRonald Long
p7590
ag3
aa(lp7591
VMalik Hoffman
p7592
ag3
aa(lp7593
VAnna Brown
p7594
ag3
aa(lp7595
VScott Robbins
p7596
ag3
aa(lp7597
VDanielle Sanford
p7598
ag3
aa(lp7599
VAlex Conrad
p7600
ag3
aa(lp7601
VTiffany Jordan DDS
p7602
ag3
aa(lp7603
VJoshua Morgan
p7604
ag3
aa(lp7605
VCrystal Cox
p7606
ag3
aa(lp7607
VDaniel Williams
p7608
ag3
aa(lp7609
VJoshua Johnson
p7610
ag3
aa(lp7611
VCaroline Daugherty
p7612
ag3
aa(lp7613
VSharon Boyer
p7614
ag3
aa(lp7615
VPatrick Miller
p7616
ag3
aa(lp7617
VMelissa Gutierrez
p7618
ag3
aa(lp7619
VSeth Gordon
p7620
ag3
aa(lp7621
VHoward Williams
p7622
ag3
aa(lp7623
VJason Rosario
p7624
ag3
aa(lp7625
VJames Watson
p7626
ag3
aa(lp7627
VJason Green
p7628
ag3
aa(lp7629
VDanielle Daniels
p7630
ag3
aa(lp7631
VJordan Santos
p7632
ag3
aa(lp7633
VDavid Adams
p7634
ag3
aa(lp7635
VAndre Andrews
p7636
ag3
aa(lp7637
VVincent Singleton
p7638
ag3
aa(lp7639
VJonathan Bailey
p7640
ag12
aa(lp7641
VCarrie Larson
p7642
ag3
aa(lp7643
VDavid Cross MD
p7644
ag3
aa(lp7645
VJoyce Clark
p7646
ag12
aa(lp7647
VMrs. Pamela Gallagher
p7648
ag3
aa(lp7649
VJonathan Johnson
p7650
ag3
aa(lp7651
VSusan Dixon
p7652
ag3
aa(lp7653
VPaul Moore
p7654
ag3
aa(lp7655
VJennifer Gray
p7656
ag3
aa(lp7657
VMark Newton
p7658
ag3
aa(lp7659
VDanielle Butler
p7660
ag3
aa(lp7661
VNancy Robinson
p7662
ag3
aa(lp7663
VMelanie Salas PhD
p7664
ag3
aa(lp7665
VStephanie Harris
p7666
ag12
aa(lp7667
VEric Hart
p7668
ag3
aa(lp7669
VShawn Sanders
p7670
ag12
aa(lp7671
VDaniel Alexander
p7672
ag3
aa(lp7673
VEdwin Jones
p7674
ag3
aa(lp7675
VIsaac Lester
p7676
ag12
aa(lp7677
VMichael Haas
p7678
ag3
aa(lp7679
VAmanda Sims
p7680
ag3
aa(lp7681
VMark Hernandez
p7682
ag3
aa(lp7683
VBetty Smith
p7684
ag3
aa(lp7685
VBrent Mcbride
p7686
ag3
aa(lp7687
VThomas Jordan
p7688
ag3
aa(lp7689
VKelly Dunlap
p7690
ag3
aa(lp7691
VBradley Stein
p7692
ag3
aa(lp7693
VChristopher Diaz
p7694
ag3
aa(lp7695
VVincent Hall
p7696
ag3
aa(lp7697
VMelanie Watson
p7698
ag3
aa(lp7699
VMegan Hawkins
p7700
ag3
aa(lp7701
VSophia Brewer
p7702
ag3
aa(lp7703
VJennifer Dunlap
p7704
ag3
aa(lp7705
VAshley Johnson
p7706
ag3
aa(lp7707
VSara Martin
p7708
ag3
aa(lp7709
VJohn Thompson
p7710
ag3
aa(lp7711
VDylan Garcia
p7712
ag3
aa(lp7713
VLinda Young
p7714
ag3
aa(lp7715
VEdward Green
p7716
ag12
aa(lp7717
VAlan Hunter
p7718
ag3
aa(lp7719
VJordan Nelson
p7720
ag3
aa(lp7721
VTiffany Conner MD
p7722
ag3
aa(lp7723
VJeffrey York
p7724
ag3
aa(lp7725
VPatrick Bell
p7726
ag3
aa(lp7727
VRichard Adkins
p7728
ag3
aa(lp7729
VMegan Lee
p7730
ag3
aa(lp7731
VJuan Wheeler
p7732
ag3
aa(lp7733
VWhitney Wallace
p7734
ag12
aa(lp7735
VStacy Peterson
p7736
ag3
aa(lp7737
VTabitha Howe
p7738
ag3
aa(lp7739
VStephanie Park
p7740
ag3
aa(lp7741
VAlexandra Ortiz
p7742
ag3
aa(lp7743
VMichael Wilson
p7744
ag3
aa(lp7745
VMatthew Gillespie
p7746
ag3
aa(lp7747
VCasey Sweeney
p7748
ag3
aa(lp7749
VAshley Davis
p7750
ag12
aa(lp7751
VJohn Salinas
p7752
ag3
aa(lp7753
VDebra Tyler
p7754
ag3
aa(lp7755
VMitchell Murphy
p7756
ag3
aa(lp7757
VSusan Greene
p7758
ag3
aa(lp7759
VMelissa Phillips
p7760
ag3
aa(lp7761
VDaisy Taylor
p7762
ag3
aa(lp7763
VShannon Gonzalez
p7764
ag3
aa(lp7765
VAlicia Willis
p7766
ag3
aa(lp7767
VSteven Thompson
p7768
ag3
aa(lp7769
VTina Davis
p7770
ag3
aa(lp7771
VAshley Carter
p7772
ag3
aa(lp7773
VTaylor Park
p7774
ag3
aa(lp7775
VEmily Mitchell DVM
p7776
ag3
aa(lp7777
VJason Velasquez
p7778
ag3
aa(lp7779
VThomas Snyder
p7780
ag3
aa(lp7781
VDiane Clark
p7782
ag12
aa(lp7783
VJonathan Wade
p7784
ag3
aa(lp7785
VTerri Conner
p7786
ag3
aa(lp7787
VMelissa Hayes
p7788
ag3
aa(lp7789
VCynthia Brandt
p7790
ag3
aa(lp7791
VEric Romero
p7792
ag3
aa(lp7793
VLisa May
p7794
ag12
aa(lp7795
VMegan Wheeler
p7796
ag3
aa(lp7797
VMichael Bruce
p7798
ag3
aa(lp7799
VTiffany Gaines
p7800
ag3
aa(lp7801
VSydney Peterson
p7802
ag3
aa(lp7803
VMichael Sutton
p7804
ag3
aa(lp7805
VJoe Smith
p7806
ag3
aa(lp7807
VJoe Ross
p7808
ag3
aa(lp7809
VKimberly Francis
p7810
ag3
aa(lp7811
VGary Robbins
p7812
ag3
aa(lp7813
VOlivia Smith
p7814
ag3
aa(lp7815
VPedro Humphrey
p7816
ag3
aa(lp7817
VMatthew Nunez
p7818
ag3
aa(lp7819
VKyle Sims
p7820
ag3
aa(lp7821
VErica Noble
p7822
ag3
aa(lp7823
VJason Fuentes
p7824
ag3
aa(lp7825
VBrandon Gates
p7826
ag3
aa(lp7827
VBrianna Hoover
p7828
ag3
aa(lp7829
VVickie Barber
p7830
ag3
aa(lp7831
VEric Hunt
p7832
ag3
aa(lp7833
VMrs. Tammy Perry
p7834
ag3
aa(lp7835
VKathy Reyes
p7836
ag3
aa(lp7837
VJamie Orr
p7838
ag3
aa(lp7839
VKimberly Goodman
p7840
ag3
aa(lp7841
VSteven Hardy
p7842
ag3
aa(lp7843
VCindy Terrell
p7844
ag3
aa(lp7845
VRebecca Graves
p7846
ag3
aa(lp7847
VThomas Reyes
p7848
ag3
aa(lp7849
VApril Riddle
p7850
ag3
aa(lp7851
VYesenia Turner
p7852
ag12
aa(lp7853
VRyan Williams
p7854
ag3
aa(lp7855
VSheila Gonzalez
p7856
ag3
aa(lp7857
VLisa Mccoy
p7858
ag3
aa(lp7859
VJessica Moss
p7860
ag3
aa(lp7861
VSheila Acosta
p7862
ag3
aa(lp7863
VDeanna Palmer
p7864
ag3
aa(lp7865
VRichard Ramirez
p7866
ag3
aa(lp7867
VAngela Young
p7868
ag3
aa(lp7869
VMichelle Padilla MD
p7870
ag3
aa(lp7871
VKatherine Velazquez
p7872
ag3
aa(lp7873
VBradley James
p7874
ag3
aa(lp7875
VKristen Fleming
p7876
ag3
aa(lp7877
VWilliam Shelton
p7878
ag3
aa(lp7879
VHeather Alexander
p7880
ag3
aa(lp7881
VBenjamin Hill
p7882
ag3
aa(lp7883
VSydney Parker
p7884
ag3
aa(lp7885
VJohn Garrett
p7886
ag3
aa(lp7887
VKatherine Anderson
p7888
ag3
aa(lp7889
VRandy Collins
p7890
ag3
aa(lp7891
VCameron Jackson
p7892
ag3
aa(lp7893
VRyan Wright
p7894
ag3
aa(lp7895
VBarry Coffey
p7896
ag3
aa(lp7897
VAustin Murray
p7898
ag3
aa(lp7899
VDennis Shields
p7900
ag3
aa(lp7901
VMartha Lucas
p7902
ag3
aa(lp7903
VMathew White
p7904
ag3
aa(lp7905
VPatrick Johnson
p7906
ag3
aa(lp7907
VMark Gonzalez
p7908
ag3
aa(lp7909
VNicole Schmidt
p7910
ag3
aa(lp7911
VKimberly Davis
p7912
ag3
aa(lp7913
VKimberly Perry
p7914
ag3
aa(lp7915
VJordan Wilson
p7916
ag3
aa(lp7917
VAdam Salazar
p7918
ag3
aa(lp7919
VMark Cook
p7920
ag3
aa(lp7921
VVincent Jacobs
p7922
ag3
aa(lp7923
VDanielle Smith
p7924
ag3
aa(lp7925
VEdward Frazier
p7926
ag3
aa(lp7927
VJeanne Richardson
p7928
ag3
aa(lp7929
VJessica Huff
p7930
ag3
aa(lp7931
VAngela Lewis MD
p7932
ag3
aa(lp7933
VAndrew Martin DVM
p7934
ag3
aa(lp7935
VKatherine Page
p7936
ag3
aa(lp7937
VAshley Wheeler
p7938
ag3
aa(lp7939
VTiffany Garcia
p7940
ag3
aa(lp7941
VJason Patterson
p7942
ag3
aa(lp7943
VDebra Nelson
p7944
ag3
aa(lp7945
VChristopher Holland
p7946
ag3
aa(lp7947
VJason Bowman
p7948
ag3
aa(lp7949
VEdward Parker
p7950
ag3
aa(lp7951
VKatrina Graham
p7952
ag3
aa(lp7953
VKatie Fisher
p7954
ag3
aa(lp7955
VAdam Boyer
p7956
ag3
aa(lp7957
VEmily Cruz
p7958
ag3
aa(lp7959
VLori Malone
p7960
ag3
aa(lp7961
VMr. Daniel Gonzalez
p7962
ag3
aa(lp7963
VChristina Hopkins
p7964
ag3
aa(lp7965
VMichael Mccarty
p7966
ag3
aa(lp7967
VAlexa Johnston
p7968
ag3
aa(lp7969
VLauren Smith
p7970
ag3
aa(lp7971
VRobert Hurley
p7972
ag12
aa(lp7973
VWendy Davis
p7974
ag3
aa(lp7975
VPatricia Fritz
p7976
ag3
aa(lp7977
VJohn Buchanan
p7978
ag3
aa(lp7979
VGwendolyn Jones
p7980
ag3
aa(lp7981
VDavid Woodard
p7982
ag3
aa(lp7983
VWilliam Green
p7984
ag3
aa(lp7985
VMorgan Cook
p7986
ag3
aa(lp7987
VTimothy Roberts
p7988
ag3
aa(lp7989
VSharon Hansen
p7990
ag3
aa(lp7991
VRobert Daniels
p7992
ag3
aa(lp7993
VPatrick Edwards
p7994
ag3
aa(lp7995
VElizabeth Sanford
p7996
ag3
aa(lp7997
VElizabeth Richards
p7998
ag3
aa(lp7999
VCaitlin Wolf
p8000
ag3
aa(lp8001
VLucas Lopez
p8002
ag3
aa(lp8003
VRichard Carey
p8004
ag3
aa(lp8005
VAlexander Sheppard
p8006
ag3
aa(lp8007
VHerbert Williams
p8008
ag3
aa(lp8009
VMatthew Allen
p8010
ag3
aa(lp8011
VMary Wilkinson
p8012
ag3
aa(lp8013
VKenneth Berg
p8014
ag3
aa(lp8015
VAlexandria Garcia
p8016
ag3
aa(lp8017
VTaylor Patel
p8018
ag3
aa(lp8019
VMegan Thompson
p8020
ag3
aa(lp8021
VMaria Lucero
p8022
ag3
aa(lp8023
VAshley Sanchez
p8024
ag3
aa(lp8025
VBryan Martinez
p8026
ag3
aa(lp8027
VTyler Jones
p8028
ag3
aa(lp8029
VJessica Johnson
p8030
ag3
aa(lp8031
VJose Fitzgerald
p8032
ag3
aa(lp8033
VJoseph Taylor
p8034
ag3
aa(lp8035
VLisa Gonzalez
p8036
ag3
aa(lp8037
VSean Cabrera
p8038
ag3
aa(lp8039
VNicholas Cole
p8040
ag3
aa(lp8041
VTravis Bowen
p8042
ag3
aa(lp8043
VAndrew Horton
p8044
ag3
aa(lp8045
VJoann Schneider
p8046
ag3
aa(lp8047
VAlison Mitchell
p8048
ag3
aa(lp8049
VMolly Blackburn
p8050
ag3
aa(lp8051
VDaniel Taylor
p8052
ag3
aa(lp8053
VBrandon Norton
p8054
ag3
aa(lp8055
VBecky Moon
p8056
ag3
aa(lp8057
VJames Gordon
p8058
ag3
aa(lp8059
VAlex Wright
p8060
ag3
aa(lp8061
VLisa Morales
p8062
ag3
aa(lp8063
VEdward Black
p8064
ag3
aa(lp8065
VMr. Luis Lawrence
p8066
ag3
aa(lp8067
VKathy Byrd DDS
p8068
ag3
aa(lp8069
VJoseph Williams
p8070
ag3
aa(lp8071
VCraig Jackson
p8072
ag3
aa(lp8073
VChristina Scott
p8074
ag3
aa(lp8075
VRichard Huber
p8076
ag3
aa(lp8077
VMelissa Simon
p8078
ag3
aa(lp8079
VAdam Herring
p8080
ag3
aa(lp8081
VWayne Wright
p8082
ag3
aa(lp8083
VEileen Fowler
p8084
ag3
aa(lp8085
VJamie Farmer
p8086
ag3
aa(lp8087
VMichelle Hall
p8088
ag3
aa(lp8089
VManuel Davis
p8090
ag3
aa(lp8091
VAustin Long
p8092
ag3
aa(lp8093
VJulie Clayton
p8094
ag3
aa(lp8095
VRobert Stephens
p8096
ag3
aa(lp8097
VAlexander Garcia
p8098
ag3
aa(lp8099
VBrittany Baker
p8100
ag3
aa(lp8101
VBrian Mccarthy
p8102
ag3
aa(lp8103
VRobert Keith
p8104
ag3
aa(lp8105
VBelinda Giles
p8106
ag3
aa(lp8107
VSarah Wilson
p8108
ag3
aa(lp8109
VAngel Cook
p8110
ag3
aa(lp8111
VJose Burnett
p8112
ag3
aa(lp8113
VKayla Gould
p8114
ag3
aa(lp8115
VJoan Knight
p8116
ag3
aa(lp8117
VLinda Barnes
p8118
ag3
aa(lp8119
VChristina Poole
p8120
ag3
aa(lp8121
VEric Lee
p8122
ag3
aa(lp8123
VNorma Hernandez
p8124
ag3
aa(lp8125
VAndre White
p8126
ag3
aa(lp8127
VMr. Stephen Baker
p8128
ag3
aa(lp8129
VCourtney Sanchez
p8130
ag3
aa(lp8131
VGregory Lowe
p8132
ag3
aa(lp8133
VPatricia Brady
p8134
ag3
aa(lp8135
VMonica Williams
p8136
ag3
aa(lp8137
VMatthew Fuller
p8138
ag3
aa(lp8139
VBarbara Huynh
p8140
ag3
aa(lp8141
VAllen Moon
p8142
ag3
aa(lp8143
VWilliam Holmes
p8144
ag3
aa(lp8145
VThomas Larsen
p8146
ag3
aa(lp8147
VDavid Davis
p8148
ag3
aa(lp8149
VDaniel Bender
p8150
ag3
aa(lp8151
VAmanda Small
p8152
ag3
aa(lp8153
VJohn Lawrence
p8154
ag3
aa(lp8155
VJennifer Little
p8156
ag3
aa(lp8157
VRachel Lawrence
p8158
ag3
aa(lp8159
VJodi Brooks
p8160
ag3
aa(lp8161
VElizabeth Anderson
p8162
ag3
aa(lp8163
VKristen Taylor
p8164
ag3
aa(lp8165
VSally Turner
p8166
ag3
aa(lp8167
VAlexander Gonzales
p8168
ag3
aa(lp8169
VPhillip Kim
p8170
ag3
aa(lp8171
VSamantha Walsh
p8172
ag3
aa(lp8173
VPhilip Davis
p8174
ag3
aa(lp8175
VLori Smith
p8176
ag3
aa(lp8177
VSandra Pena
p8178
ag3
aa(lp8179
VAlicia Cole
p8180
ag3
aa(lp8181
VColton Smith
p8182
ag3
aa(lp8183
VBrian Rivera
p8184
ag3
aa(lp8185
VJonathan Griffin
p8186
ag3
aa(lp8187
VMichael Roman
p8188
ag3
aa(lp8189
VEvan Schwartz
p8190
ag3
aa(lp8191
VNatalie Hernandez
p8192
ag3
aa(lp8193
VAntonio Shaw
p8194
ag3
aa(lp8195
VGabrielle Harris
p8196
ag3
aa(lp8197
VAnthony Jones
p8198
ag3
aa(lp8199
VMrs. Melissa Riley
p8200
ag3
aa(lp8201
VHeather Jackson
p8202
ag3
aa(lp8203
VJoel Hall
p8204
ag3
aa(lp8205
VRandy Watson
p8206
ag3
aa(lp8207
VVanessa Lewis
p8208
ag3
aa(lp8209
VCheryl Bennett
p8210
ag3
aa(lp8211
VMr. James Jackson
p8212
ag3
aa(lp8213
VLisa Watson
p8214
ag3
aa(lp8215
VChristopher Marquez
p8216
ag3
aa(lp8217
VPhillip Dean
p8218
ag3
aa(lp8219
VRobyn Macdonald
p8220
ag3
aa(lp8221
VAshley Friedman
p8222
ag3
aa(lp8223
VLisa Mcguire
p8224
ag3
aa(lp8225
VJocelyn Wagner
p8226
ag3
aa(lp8227
VLisa Moore
p8228
ag3
aa(lp8229
VJacob Cantrell
p8230
ag3
aa(lp8231
VElizabeth Gibbs
p8232
ag3
aa(lp8233
VFrank Green
p8234
ag3
aa(lp8235
VNicole Castaneda
p8236
ag3
aa(lp8237
VChristina Martinez
p8238
ag3
aa(lp8239
VKyle Barnett
p8240
ag3
aa(lp8241
VThomas Travis
p8242
ag3
aa(lp8243
VThomas Morrison
p8244
ag3
aa(lp8245
VMark Booth
p8246
ag3
aa(lp8247
VRachel Young
p8248
ag3
aa(lp8249
VPhilip Cox
p8250
ag3
aa(lp8251
VSeth Smith
p8252
ag3
aa(lp8253
VTammy Leonard
p8254
ag3
aa(lp8255
VAngela Long
p8256
ag3
aa(lp8257
VDavid Cruz
p8258
ag3
aa(lp8259
VKimberly Mcknight
p8260
ag3
aa(lp8261
VJoshua Cruz
p8262
ag3
aa(lp8263
VMegan White
p8264
ag3
aa(lp8265
VJeremy Jennings
p8266
ag3
aa(lp8267
VMichael Miller
p8268
ag3
aa(lp8269
VAndrew Walton
p8270
ag3
aa(lp8271
VCharles Padilla
p8272
ag3
aa(lp8273
VKelly Gibbs
p8274
ag3
aa(lp8275
VAndrea Ali
p8276
ag3
aa(lp8277
VKrista Sullivan
p8278
ag3
aa(lp8279
VPeter Rasmussen
p8280
ag3
aa(lp8281
VJeffery Howard
p8282
ag3
aa(lp8283
VSarah Valentine
p8284
ag3
aa(lp8285
VAlexander Mata
p8286
ag3
aa(lp8287
VRicky Hoover
p8288
ag3
aa(lp8289
VDarren Campbell
p8290
ag3
aa(lp8291
VMatthew Hernandez DVM
p8292
ag3
aa(lp8293
VAnne Wade
p8294
ag12
aa(lp8295
VLisa Lucas
p8296
ag3
aa(lp8297
VLaura Ellis
p8298
ag3
aa(lp8299
VDenise Johnson
p8300
ag3
aa(lp8301
VBrad Carlson
p8302
ag3
aa(lp8303
VKathryn Owen MD
p8304
ag3
aa(lp8305
VKatherine Gates
p8306
ag3
aa(lp8307
VKimberly Stout
p8308
ag3
aa(lp8309
VSpencer Moore
p8310
ag3
aa(lp8311
VGail Morgan
p8312
ag3
aa(lp8313
VRhonda Johnson
p8314
ag3
aa(lp8315
VCynthia Morse
p8316
ag3
aa(lp8317
VLisa Davies
p8318
ag3
aa(lp8319
VFrank Herring
p8320
ag3
aa(lp8321
VHeidi Jensen
p8322
ag3
aa(lp8323
VLori Perez
p8324
ag3
aa(lp8325
VJennifer Anderson
p8326
ag3
aa(lp8327
VJasmine Morales
p8328
ag3
aa(lp8329
VDavid Johnson
p8330
ag3
aa(lp8331
VLynn Rose
p8332
ag3
aa(lp8333
VJoseph Reed
p8334
ag3
aa(lp8335
VNicholas Johnson
p8336
ag3
aa(lp8337
VBenjamin Brooks
p8338
ag3
aa(lp8339
VErica Miller
p8340
ag3
aa(lp8341
VScott Dyer
p8342
ag3
aa(lp8343
VPamela Cox
p8344
ag3
aa(lp8345
VScott Bartlett
p8346
ag3
aa(lp8347
VSamantha Jones
p8348
ag3
aa(lp8349
VMichael Bowman
p8350
ag3
aa(lp8351
VCassandra Travis
p8352
ag3
aa(lp8353
VNoah Mason
p8354
ag3
aa(lp8355
VMichele Roberts
p8356
ag3
aa(lp8357
VCourtney Harris
p8358
ag3
aa(lp8359
VBradley Harris
p8360
ag3
aa(lp8361
VJasmine Davis MD
p8362
ag3
aa(lp8363
VBeth Parrish
p8364
ag3
aa(lp8365
VSamuel Dunn
p8366
ag3
aa(lp8367
VJames Kennedy
p8368
ag3
aa(lp8369
VJessica Rodriguez
p8370
ag3
aa(lp8371
VSteven Mcdowell
p8372
ag3
aa(lp8373
VKevin Delgado
p8374
ag3
aa(lp8375
VStephanie Ho
p8376
ag3
aa(lp8377
VErin Mathis
p8378
ag3
aa(lp8379
VRyan Burns
p8380
ag3
aa(lp8381
VTravis Chaney
p8382
ag3
aa(lp8383
VJames Hill
p8384
ag3
aa(lp8385
VVanessa Morris
p8386
ag3
aa(lp8387
VSandra Foster
p8388
ag3
aa(lp8389
VAdam Dennis
p8390
ag3
aa(lp8391
VHannah Chen
p8392
ag3
aa(lp8393
VRebecca Rivera
p8394
ag3
aa(lp8395
VJames Vaughn
p8396
ag3
aa(lp8397
VEvan Gamble
p8398
ag3
aa(lp8399
VZachary Smith
p8400
ag3
aa(lp8401
VDavid Morris
p8402
ag3
aa(lp8403
VHeather Davis
p8404
ag3
aa(lp8405
VRichard Griffith
p8406
ag3
aa(lp8407
VAmanda Jones
p8408
ag3
aa(lp8409
VAdam Hudson
p8410
ag3
aa(lp8411
VElizabeth Clark
p8412
ag3
aa(lp8413
VNancy Hensley
p8414
ag3
aa(lp8415
VAlyssa Williams
p8416
ag3
aa(lp8417
VScott Turner
p8418
ag3
aa(lp8419
VKristi Brown
p8420
ag3
aa(lp8421
VLaura Sanders
p8422
ag3
aa(lp8423
VAnne Carr
p8424
ag3
aa(lp8425
VMegan Carney
p8426
ag3
aa(lp8427
VCaitlyn Miller
p8428
ag3
aa(lp8429
VAndrew Lowery
p8430
ag3
aa(lp8431
VHolly Watson
p8432
ag3
aa(lp8433
VColin Mclaughlin
p8434
ag3
aa(lp8435
VSandra Macdonald
p8436
ag3
aa(lp8437
VRebecca Wagner
p8438
ag3
aa(lp8439
VChristopher Cabrera
p8440
ag3
aa(lp8441
VBlake Case
p8442
ag3
aa(lp8443
VAnnette Burton
p8444
ag3
aa(lp8445
VHannah Gonzalez
p8446
ag3
aa(lp8447
VAnna Stewart
p8448
ag3
aa(lp8449
VAngela Myers
p8450
ag3
aa(lp8451
VGerald Brown
p8452
ag3
aa(lp8453
VChristopher Garcia
p8454
ag3
aa(lp8455
VCorey Booth
p8456
ag3
aa(lp8457
VNatalie Wallace
p8458
ag3
aa(lp8459
VSteve Tate
p8460
ag3
aa(lp8461
VEric Ramirez
p8462
ag3
aa(lp8463
VMatthew Washington
p8464
ag3
aa(lp8465
VCarlos Potter
p8466
ag3
aa(lp8467
VCheryl Cox
p8468
ag3
aa(lp8469
VStephanie Spencer
p8470
ag3
aa(lp8471
VPeter Hall
p8472
ag3
aa(lp8473
VRobert Sullivan
p8474
ag3
aa(lp8475
VDr. Linda Harris
p8476
ag3
aa(lp8477
VLawrence Lee
p8478
ag3
aa(lp8479
VCarol Perry
p8480
ag3
aa(lp8481
VAndrew Higgins
p8482
ag3
aa(lp8483
VAntonio Thomas
p8484
ag3
aa(lp8485
VSarah Mcdonald
p8486
ag3
aa(lp8487
VMatthew Watson
p8488
ag3
aa(lp8489
VHannah Phelps
p8490
ag3
aa(lp8491
VKristen Pierce
p8492
ag3
aa(lp8493
VChris Fischer
p8494
ag3
aa(lp8495
VMicheal Little
p8496
ag3
aa(lp8497
VTyler Gibson
p8498
ag3
aa(lp8499
VDavid Wright Jr.
p8500
ag3
aa(lp8501
VRobert Bird
p8502
ag3
aa(lp8503
VDonna Stokes
p8504
ag3
aa(lp8505
VIsaiah Diaz
p8506
ag3
aa(lp8507
VElizabeth Taylor
p8508
ag3
aa(lp8509
VMackenzie Johnson
p8510
ag3
aa(lp8511
VThomas Logan
p8512
ag3
aa(lp8513
VSamantha Martinez
p8514
ag3
aa(lp8515
VWesley Clements
p8516
ag3
aa(lp8517
VLinda Oliver
p8518
ag3
aa(lp8519
VWillie Warren
p8520
ag3
aa(lp8521
VElizabeth Martin
p8522
ag3
aa(lp8523
VKelly Barnett
p8524
ag3
aa(lp8525
VJulie Williams
p8526
ag3
aa(lp8527
VJesse Garcia
p8528
ag3
aa(lp8529
VDavid Sparks
p8530
ag3
aa(lp8531
VTaylor Rodriguez
p8532
ag3
aa(lp8533
VDaniel Rangel
p8534
ag3
aa(lp8535
VAllison Lutz
p8536
ag3
aa(lp8537
VAndrew Wright
p8538
ag3
aa(lp8539
VAaron Lewis
p8540
ag3
aa(lp8541
VMichael Harrell
p8542
ag3
aa(lp8543
VRobert Henry
p8544
ag3
aa(lp8545
VLinda Hale
p8546
ag3
aa(lp8547
VDanielle Bates MD
p8548
ag3
aa(lp8549
VJeffrey White
p8550
ag3
aa(lp8551
VTroy Burgess
p8552
ag3
aa(lp8553
VRonald Boyle
p8554
ag3
aa(lp8555
VVanessa Richardson
p8556
ag3
aa(lp8557
VTyler Martinez
p8558
ag3
aa(lp8559
VJon Nguyen
p8560
ag3
aa(lp8561
VAmanda Hansen
p8562
ag3
aa(lp8563
VPaul Willis
p8564
ag3
aa(lp8565
VMorgan Kelly
p8566
ag3
aa(lp8567
VMichael Jimenez
p8568
ag3
aa(lp8569
VTimothy Ochoa
p8570
ag3
aa(lp8571
VLisa Farley
p8572
ag3
aa(lp8573
VGreg Kelly
p8574
ag3
aa(lp8575
VRebecca Garcia
p8576
ag3
aa(lp8577
VSamuel Blankenship
p8578
ag3
aa(lp8579
VJason Smith
p8580
ag3
aa(lp8581
VVanessa Scott
p8582
ag3
aa(lp8583
VKevin Washington
p8584
ag3
aa(lp8585
VAmanda Green
p8586
ag3
aa(lp8587
VMary Stevens
p8588
ag3
aa(lp8589
VDeborah Clark
p8590
ag3
aa(lp8591
VJose Bradley
p8592
ag3
aa(lp8593
VKevin Nguyen
p8594
ag3
aa(lp8595
VFrank Smith
p8596
ag3
aa(lp8597
VKristin Wallace
p8598
ag3
aa(lp8599
VKenneth Harding
p8600
ag3
aa(lp8601
VTyler Harris
p8602
ag3
aa(lp8603
VLaura Bailey
p8604
ag3
aa(lp8605
VSara Jones
p8606
ag3
aa(lp8607
VAngel Campbell
p8608
ag3
aa(lp8609
VAdam Morse
p8610
ag3
aa(lp8611
VJeremy Durham
p8612
ag3
aa(lp8613
VMichelle Archer
p8614
ag3
aa(lp8615
VKatherine Medina
p8616
ag3
aa(lp8617
VJoshua Tyler
p8618
ag3
aa(lp8619
VBailey Aguilar
p8620
ag3
aa(lp8621
VRachel Scott
p8622
ag3
aa(lp8623
VMaurice Lopez
p8624
ag3
aa(lp8625
VThomas Adams
p8626
ag3
aa(lp8627
VMelissa Pittman
p8628
ag3
aa(lp8629
VAriana Torres
p8630
ag3
aa(lp8631
VChristine Massey
p8632
ag3
aa(lp8633
VJorge Gray
p8634
ag3
aa(lp8635
VSamantha Kennedy
p8636
ag3
aa(lp8637
VConnor Hernandez
p8638
ag3
aa(lp8639
VStephen White
p8640
ag3
aa(lp8641
VJeffrey Shepherd
p8642
ag3
aa(lp8643
VRonald Walker
p8644
ag3
aa(lp8645
VDiana Park
p8646
ag3
aa(lp8647
VBenjamin Brown
p8648
ag3
aa(lp8649
VPreston Odom
p8650
ag3
aa(lp8651
VMorgan Taylor DDS
p8652
ag3
aa(lp8653
VTracey Haas
p8654
ag3
aa(lp8655
VRoberto Buck
p8656
ag3
aa(lp8657
VJustin Adams
p8658
ag3
aa(lp8659
VAshley Patterson
p8660
ag3
aa(lp8661
VTheresa Diaz
p8662
ag3
aa(lp8663
VElizabeth Smith
p8664
ag3
aa(lp8665
VTonya Hoffman
p8666
ag3
aa(lp8667
VKrista Stokes
p8668
ag3
aa(lp8669
VSharon Sherman
p8670
ag3
aa(lp8671
VBeth Rice
p8672
ag3
aa(lp8673
VMorgan French
p8674
ag3
aa(lp8675
VJack Mendoza
p8676
ag3
aa(lp8677
VJasmine Caldwell
p8678
ag3
aa(lp8679
VBrittany Snyder
p8680
ag3
aa(lp8681
VWilliam Rodriguez III
p8682
ag3
aa(lp8683
VCharles Harris
p8684
ag3
aa(lp8685
VChris Shaw
p8686
ag3
aa(lp8687
VJohn Gomez
p8688
ag3
aa(lp8689
VEmma Lee
p8690
ag3
aa(lp8691
VCorey Foster
p8692
ag3
aa(lp8693
VJoshua Robinson
p8694
ag3
aa(lp8695
VChristopher Little
p8696
ag3
aa(lp8697
VKristin Turner
p8698
ag3
aa(lp8699
VChristina Moreno
p8700
ag3
aa(lp8701
VMichael Flores
p8702
ag3
aa(lp8703
VDarrell Diaz
p8704
ag3
aa(lp8705
VCatherine Newman
p8706
ag3
aa(lp8707
VBrenda Richards
p8708
ag3
aa(lp8709
VMary Diaz
p8710
ag3
aa(lp8711
VDerek Washington
p8712
ag3
aa(lp8713
VAnthony Steele
p8714
ag3
aa(lp8715
VKaren Rollins
p8716
ag3
aa(lp8717
VThomas Garcia
p8718
ag3
aa(lp8719
VDiane Delgado
p8720
ag3
aa(lp8721
VAmanda Henson
p8722
ag12
aa(lp8723
VWendy Wade
p8724
ag3
aa(lp8725
VNathan Stanley
p8726
ag3
aa(lp8727
VDr. Jessica Petty MD
p8728
ag3
aa(lp8729
VAndrew Taylor
p8730
ag3
aa(lp8731
VKimberly Mclean
p8732
ag3
aa(lp8733
VRobert Gonzalez
p8734
ag3
aa(lp8735
VDawn Dougherty
p8736
ag3
aa(lp8737
VMisty Combs
p8738
ag3
aa(lp8739
VKathryn Adkins
p8740
ag3
aa(lp8741
VAlexandra Davis
p8742
ag3
aa(lp8743
VJesse Morales
p8744
ag3
aa(lp8745
VCynthia Jones
p8746
ag3
aa(lp8747
VKim Parker
p8748
ag3
aa(lp8749
VDaniel Hancock
p8750
ag3
aa(lp8751
VJennifer Williams
p8752
ag3
aa(lp8753
VCynthia Cooper
p8754
ag3
aa(lp8755
VCole Henderson
p8756
ag3
aa(lp8757
VRhonda Cooper
p8758
ag3
aa(lp8759
VMary Stevens
p8760
ag3
aa(lp8761
VSamantha Mcfarland
p8762
ag3
aa(lp8763
VJustin Steele
p8764
ag3
aa(lp8765
VTerry Davis MD
p8766
ag3
aa(lp8767
VMrs. Gina Thompson
p8768
ag3
aa(lp8769
VJason Scott
p8770
ag3
aa(lp8771
VJamie Anderson
p8772
ag3
aa(lp8773
VShawn Nichols
p8774
ag3
aa(lp8775
VJo Espinoza
p8776
ag3
aa(lp8777
VMs. Christina Hall
p8778
ag3
aa(lp8779
VAmy Mills
p8780
ag3
aa(lp8781
VGeorge Arnold
p8782
ag3
aa(lp8783
VDiana Cooke
p8784
ag3
aa(lp8785
VDanny Thomas
p8786
ag3
aa(lp8787
VPeter Sparks
p8788
ag3
aa(lp8789
VPamela Mitchell
p8790
ag3
aa(lp8791
VMatthew Baker
p8792
ag3
aa(lp8793
VCharles Graham
p8794
ag3
aa(lp8795
VLauren Weiss
p8796
ag3
aa(lp8797
VRebecca Smith
p8798
ag3
aa(lp8799
VJodi Hopkins
p8800
ag3
aa(lp8801
VTimothy Parker
p8802
ag3
aa(lp8803
VKelly Murillo
p8804
ag3
aa(lp8805
VKaren Watson
p8806
ag3
aa(lp8807
VJohn Perez
p8808
ag3
aa(lp8809
VKelsey Wong
p8810
ag3
aa(lp8811
VBrian Norman
p8812
ag3
aa(lp8813
VJennifer Park
p8814
ag3
aa(lp8815
VAlexandra Lindsey
p8816
ag3
aa(lp8817
VMelissa Hernandez
p8818
ag3
aa(lp8819
VRobert Davis
p8820
ag3
aa(lp8821
VBecky Gutierrez
p8822
ag3
aa(lp8823
VRyan Robles
p8824
ag3
aa(lp8825
VSean Marshall
p8826
ag3
aa(lp8827
VBrent Grant
p8828
ag3
aa(lp8829
VMary Nunez
p8830
ag3
aa(lp8831
VMatthew Gates
p8832
ag3
aa(lp8833
VCheryl Patterson
p8834
ag3
aa(lp8835
VRobert Padilla
p8836
ag3
aa(lp8837
VAlexis Chandler
p8838
ag3
aa(lp8839
VEmma Brown
p8840
ag3
aa(lp8841
VMr. Walter Williams
p8842
ag3
aa(lp8843
VSarah Cunningham
p8844
ag3
aa(lp8845
VChristine Wright
p8846
ag3
aa(lp8847
VKeith Ramirez
p8848
ag3
aa(lp8849
VDalton Brown
p8850
ag3
aa(lp8851
VJustin Boyd
p8852
ag3
aa(lp8853
VMitchell Smith
p8854
ag3
aa(lp8855
VGail Adkins
p8856
ag3
aa(lp8857
VJose Ruiz
p8858
ag3
aa(lp8859
VLawrence Turner
p8860
ag3
aa(lp8861
VSharon Benson
p8862
ag3
aa(lp8863
VJessica Rogers
p8864
ag3
aa(lp8865
VSusan Wu
p8866
ag3
aa(lp8867
VDanielle Barry
p8868
ag3
aa(lp8869
VJason Wilson
p8870
ag3
aa(lp8871
VRyan Barnes
p8872
ag3
aa(lp8873
VSabrina Andersen
p8874
ag3
aa(lp8875
VWilliam Baker
p8876
ag3
aa(lp8877
VEric West
p8878
ag3
aa(lp8879
VJames Patterson MD
p8880
ag3
aa(lp8881
VTara Miller
p8882
ag3
aa(lp8883
VRichard Mcclain
p8884
ag3
aa(lp8885
VChristopher Hayes
p8886
ag3
aa(lp8887
VKatherine Baker
p8888
ag3
aa(lp8889
VMark Cortez
p8890
ag3
aa(lp8891
VAustin Norton MD
p8892
ag3
aa(lp8893
VDr. David Skinner Jr.
p8894
ag3
aa(lp8895
VChristine Keith
p8896
ag3
aa(lp8897
VWilliam Barnes
p8898
ag3
aa(lp8899
VDavid Marshall
p8900
ag3
aa(lp8901
VGregory Ford DDS
p8902
ag12
aa(lp8903
VRachel Liu
p8904
ag3
aa(lp8905
VVickie Franklin
p8906
ag3
aa(lp8907
VKyle Harrington
p8908
ag3
aa(lp8909
VJoseph Fuentes
p8910
ag3
aa(lp8911
VMichael Brewer
p8912
ag3
aa(lp8913
VJohn Peck
p8914
ag3
aa(lp8915
VKristina Porter
p8916
ag3
aa(lp8917
VBetty Owens
p8918
ag3
aa(lp8919
VJamie Cortez
p8920
ag3
aa(lp8921
VKatherine Roman
p8922
ag3
aa(lp8923
VPhilip Gray
p8924
ag3
aa(lp8925
VRobert Gonzalez
p8926
ag3
aa(lp8927
VRyan Martinez
p8928
ag3
aa(lp8929
VShannon Jacobs
p8930
ag3
aa(lp8931
VDawn Cole
p8932
ag3
aa(lp8933
VBrian Watson
p8934
ag3
aa(lp8935
VCarlos Thomas
p8936
ag3
aa(lp8937
VJames Mccullough
p8938
ag3
aa(lp8939
VJohn Jackson
p8940
ag3
aa(lp8941
VLeslie Bennett
p8942
ag3
aa(lp8943
VSean Douglas
p8944
ag3
aa(lp8945
VRichard Davis
p8946
ag3
aa(lp8947
VMichael Mendoza
p8948
ag3
aa(lp8949
VCheyenne Edwards
p8950
ag3
aa(lp8951
VJulia Wall
p8952
ag3
aa(lp8953
VDavid Maxwell
p8954
ag3
aa(lp8955
VJames Wright
p8956
ag3
aa(lp8957
VKathleen Moreno
p8958
ag3
aa(lp8959
VAlbert Brooks
p8960
ag3
aa(lp8961
VBrittany James
p8962
ag3
aa(lp8963
VRyan Gibson
p8964
ag3
aa(lp8965
VMark Phillips
p8966
ag3
aa(lp8967
VTheresa Roberts
p8968
ag3
aa(lp8969
VJennifer Wilson
p8970
ag3
aa(lp8971
VTina Johnson
p8972
ag3
aa(lp8973
VBrandon Swanson
p8974
ag3
aa(lp8975
VDaniel Osborne
p8976
ag3
aa(lp8977
VSarah Morris
p8978
ag3
aa(lp8979
VBianca Johnson
p8980
ag3
aa(lp8981
VDenise Rogers
p8982
ag3
aa(lp8983
VAnthony Day
p8984
ag3
aa(lp8985
VJanet Grimes
p8986
ag3
aa(lp8987
VJerry Faulkner
p8988
ag3
aa(lp8989
VArthur Bell
p8990
ag3
aa(lp8991
VNicholas Nelson
p8992
ag3
aa(lp8993
VRegina Walton
p8994
ag3
aa(lp8995
VAlan Russo
p8996
ag3
aa(lp8997
VSharon Jones
p8998
ag3
aa(lp8999
VMary Lowe
p9000
ag3
aa(lp9001
VPriscilla Hunt
p9002
ag3
aa(lp9003
VNichole Blake
p9004
ag3
aa(lp9005
VTommy Hernandez
p9006
ag3
aa(lp9007
VStephanie Moore
p9008
ag3
aa(lp9009
VRaymond Robinson
p9010
ag3
aa(lp9011
VDylan Arellano
p9012
ag3
aa(lp9013
VMelanie Green
p9014
ag3
aa(lp9015
VBrian Chen
p9016
ag3
aa(lp9017
VJoshua Simmons
p9018
ag3
aa(lp9019
VDiana Jackson
p9020
ag3
aa(lp9021
VErika Schultz
p9022
ag3
aa(lp9023
VJennifer Todd
p9024
ag3
aa(lp9025
VSarah Rivera
p9026
ag3
aa(lp9027
VMichelle Torres
p9028
ag3
aa(lp9029
VEmily Austin
p9030
ag3
aa(lp9031
VGloria Hamilton
p9032
ag3
aa(lp9033
VEmily Reid
p9034
ag3
aa(lp9035
VMichaela Gilmore
p9036
ag3
aa(lp9037
VKelly Roman
p9038
ag3
aa(lp9039
VDonna George
p9040
ag3
aa(lp9041
VWilliam Jensen
p9042
ag3
aa(lp9043
VDennis Mcdonald
p9044
ag3
aa(lp9045
VThomas Harris
p9046
ag3
aa(lp9047
VJames Jackson
p9048
ag3
aa(lp9049
VEmily Bishop
p9050
ag3
aa(lp9051
VErika Newman
p9052
ag3
aa(lp9053
VTracey Young
p9054
ag3
aa(lp9055
VApril Thompson
p9056
ag3
aa(lp9057
VTiffany Manning
p9058
ag3
aa(lp9059
VBrittany Rodriguez
p9060
ag3
aa(lp9061
VMisty Patrick
p9062
ag3
aa(lp9063
VJoshua Brown
p9064
ag3
aa(lp9065
VJason Copeland
p9066
ag3
aa(lp9067
VTrevor Hughes
p9068
ag3
aa(lp9069
VLuis Cervantes
p9070
ag3
aa(lp9071
VTimothy Cruz
p9072
ag3
aa(lp9073
VChristopher Gonzalez
p9074
ag3
aa(lp9075
VChristopher Shaw
p9076
ag3
aa(lp9077
VTraci Williams
p9078
ag3
aa(lp9079
VMichael Lopez
p9080
ag3
aa(lp9081
VMeredith Beasley
p9082
ag3
aa(lp9083
VMichael Carney
p9084
ag3
aa(lp9085
VChristian Hardy
p9086
ag3
aa(lp9087
VScott Sanchez
p9088
ag3
aa(lp9089
VPamela Olson
p9090
ag3
aa(lp9091
VAllison Martinez
p9092
ag3
aa(lp9093
VAmy Horn DDS
p9094
ag3
aa(lp9095
VAmanda Arias
p9096
ag3
aa(lp9097
VBrandy Baker
p9098
ag3
aa(lp9099
VChristina Thompson
p9100
ag3
aa(lp9101
VBrian Watson
p9102
ag3
aa(lp9103
VKendra Taylor
p9104
ag3
aa(lp9105
VBrianna Garcia
p9106
ag3
aa(lp9107
VDanielle Jones
p9108
ag3
aa(lp9109
VMary Hughes
p9110
ag3
aa(lp9111
VJoshua Jenkins
p9112
ag3
aa(lp9113
VJames Morris
p9114
ag3
aa(lp9115
VMichelle Jennings
p9116
ag3
aa(lp9117
VNatalie Fowler
p9118
ag3
aa(lp9119
VCourtney Everett
p9120
ag3
aa(lp9121
VJames Miller
p9122
ag3
aa(lp9123
VMelody Bryant
p9124
ag3
aa(lp9125
VJeremy Davis
p9126
ag3
aa(lp9127
VDanielle Perry
p9128
ag3
aa(lp9129
VKimberly Moore
p9130
ag3
aa(lp9131
VChristy Ortiz
p9132
ag3
aa(lp9133
VAngela Allen
p9134
ag3
aa(lp9135
VAmy Patel
p9136
ag3
aa(lp9137
VDeanna Mason
p9138
ag3
aa(lp9139
VAndre Smith
p9140
ag3
aa(lp9141
VMary Figueroa
p9142
ag3
aa(lp9143
VMark Wolfe
p9144
ag3
aa(lp9145
VNancy Willis
p9146
ag3
aa(lp9147
VLori Hardy
p9148
ag3
aa(lp9149
VSusan Richardson
p9150
ag3
aa(lp9151
VKeith Gonzalez
p9152
ag3
aa(lp9153
VErik Marsh
p9154
ag3
aa(lp9155
VGerald Garcia
p9156
ag3
aa(lp9157
VJames Gonzalez
p9158
ag3
aa(lp9159
VThomas Davis
p9160
ag3
aa(lp9161
VElizabeth Moore
p9162
ag3
aa(lp9163
VStephanie Martin
p9164
ag3
aa(lp9165
VWhitney Holt
p9166
ag3
aa(lp9167
VTonya Obrien
p9168
ag3
aa(lp9169
VChristopher Rivera
p9170
ag3
aa(lp9171
VEmily Stokes
p9172
ag3
aa(lp9173
VAnthony Green
p9174
ag3
aa(lp9175
VMichelle Lopez
p9176
ag3
aa(lp9177
VDanielle Nixon
p9178
ag3
aa(lp9179
VTimothy Martinez
p9180
ag3
aa(lp9181
VDr. Amanda Rogers
p9182
ag3
aa(lp9183
VJohnathan Gill
p9184
ag3
aa(lp9185
VLisa Schultz
p9186
ag3
aa(lp9187
VLisa Martin
p9188
ag3
aa(lp9189
VMichael Webb
p9190
ag3
aa(lp9191
VMichelle Garcia
p9192
ag3
aa(lp9193
VMichele Copeland
p9194
ag3
aa(lp9195
VBradley Clark
p9196
ag3
aa(lp9197
VCourtney Wong
p9198
ag3
aa(lp9199
VAllison Williams
p9200
ag3
aa(lp9201
VCrystal Thomas
p9202
ag3
aa(lp9203
VJanet Thompson
p9204
ag3
aa(lp9205
VAngela Huerta
p9206
ag3
aa(lp9207
VPatrick Cooper
p9208
ag3
aa(lp9209
VAustin Gray
p9210
ag3
aa(lp9211
VLuke Black
p9212
ag3
aa(lp9213
VVickie Spencer
p9214
ag3
aa(lp9215
VEdward Barry
p9216
ag3
aa(lp9217
VMr. Cameron Holland
p9218
ag3
aa(lp9219
VAlison Lopez
p9220
ag3
aa(lp9221
VSteven Barnes
p9222
ag3
aa(lp9223
VHeather Holmes
p9224
ag3
aa(lp9225
VMegan Collins
p9226
ag3
aa(lp9227
VFrancisco Mayer
p9228
ag3
aa(lp9229
VDavid Baker
p9230
ag3
aa(lp9231
VJoyce Griffin
p9232
ag3
aa(lp9233
VChristine Hernandez
p9234
ag3
aa(lp9235
VMiss Jamie Novak DDS
p9236
ag3
aa(lp9237
VCody Hurley
p9238
ag3
aa(lp9239
VNathan King
p9240
ag3
aa(lp9241
VBethany Vasquez
p9242
ag3
aa(lp9243
VKimberly Gonzalez
p9244
ag3
aa(lp9245
VJoseph Hopkins
p9246
ag3
aa(lp9247
VRobert Olsen
p9248
ag3
aa(lp9249
VAndrew Parker
p9250
ag3
aa(lp9251
VLawrence Shelton
p9252
ag3
aa(lp9253
VNicole Hernandez
p9254
ag3
aa(lp9255
VNathaniel Logan
p9256
ag3
aa(lp9257
VAnna Frazier
p9258
ag3
aa(lp9259
VLisa Miller MD
p9260
ag3
aa(lp9261
VChloe Williams
p9262
ag3
aa(lp9263
VFrancisco Young
p9264
ag3
aa(lp9265
VCharles Cherry
p9266
ag3
aa(lp9267
VDerek Hahn
p9268
ag3
aa(lp9269
VJanice King
p9270
ag3
aa(lp9271
VCynthia Brown
p9272
ag3
aa(lp9273
VAaron Lambert
p9274
ag3
aa(lp9275
VKenneth Mckenzie
p9276
ag3
aa(lp9277
VWayne Wright
p9278
ag3
aa(lp9279
VMs. Shannon Moses DDS
p9280
ag3
aa(lp9281
VHeidi Floyd
p9282
ag3
aa(lp9283
VAngela Werner
p9284
ag3
aa(lp9285
VPatrick Hall
p9286
ag3
aa(lp9287
VRegina Morris
p9288
ag3
aa(lp9289
VDevon Porter
p9290
ag3
aa(lp9291
VMaria Smith
p9292
ag3
aa(lp9293
VSue Kennedy
p9294
ag3
aa(lp9295
VLisa Caldwell
p9296
ag3
aa(lp9297
VRichard Shaw
p9298
ag3
aa(lp9299
VMary Olsen
p9300
ag3
aa(lp9301
VJessica Knox
p9302
ag3
aa(lp9303
VNicholas Benjamin
p9304
ag3
aa(lp9305
VPatrick Christian
p9306
ag3
aa(lp9307
VCharles Holloway
p9308
ag3
aa(lp9309
VJason Allen
p9310
ag3
aa(lp9311
VTiffany Gonzales
p9312
ag3
aa(lp9313
VDiana Mclean
p9314
ag3
aa(lp9315
VDevin Bryant
p9316
ag3
aa(lp9317
VKevin Potter
p9318
ag3
aa(lp9319
VChristian Rodriguez
p9320
ag3
aa(lp9321
VDebbie Kelly
p9322
ag3
aa(lp9323
VMegan Gonzalez
p9324
ag3
aa(lp9325
VKathryn Torres
p9326
ag3
aa(lp9327
VAndrew Stone
p9328
ag3
aa(lp9329
VRebecca Carroll
p9330
ag3
aa(lp9331
VCaitlyn Jones
p9332
ag3
aa(lp9333
VMark Ross
p9334
ag3
aa(lp9335
VKimberly Jackson
p9336
ag3
aa(lp9337
VKevin Ford
p9338
ag3
aa(lp9339
VYolanda Perkins
p9340
ag3
aa(lp9341
VWilliam Byrd
p9342
ag3
aa(lp9343
VPamela Thornton
p9344
ag3
aa(lp9345
VTimothy Hamilton
p9346
ag3
aa(lp9347
VDan Burgess
p9348
ag3
aa(lp9349
VCameron Perry
p9350
ag3
aa(lp9351
VAlan Patterson
p9352
ag3
aa(lp9353
VPatrick Klein
p9354
ag3
aa(lp9355
VJamie Foster
p9356
ag3
aa(lp9357
VMark Lewis
p9358
ag3
aa(lp9359
VWillie Cervantes
p9360
ag3
aa(lp9361
VDebra Russell
p9362
ag3
aa(lp9363
VRandall Garcia
p9364
ag3
aa(lp9365
VGeorge Solis
p9366
ag3
aa(lp9367
VMary Evans
p9368
ag3
aa(lp9369
VSandra Murphy
p9370
ag3
aa(lp9371
VTyler White
p9372
ag3
aa(lp9373
VMatthew Atkinson
p9374
ag3
aa(lp9375
VShawn Mccarthy
p9376
ag3
aa(lp9377
VDaniel Roman
p9378
ag3
aa(lp9379
VRoger Haynes
p9380
ag3
aa(lp9381
VMargaret Bowen
p9382
ag3
aa(lp9383
VDiana Palmer
p9384
ag3
aa(lp9385
VDavid Jones
p9386
ag3
aa(lp9387
VLindsey Underwood
p9388
ag3
aa(lp9389
VRicky Clark
p9390
ag3
aa(lp9391
VTiffany Holden
p9392
ag3
aa(lp9393
VRhonda Bailey
p9394
ag3
aa(lp9395
VNicholas Dougherty
p9396
ag3
aa(lp9397
VJohn Hodges
p9398
ag3
aa(lp9399
VSarah White
p9400
ag3
aa(lp9401
VVickie Poole
p9402
ag3
aa(lp9403
VMartin Vance
p9404
ag3
aa(lp9405
VJill Wells
p9406
ag3
aa(lp9407
VJames Holmes
p9408
ag3
aa(lp9409
VRichard Mayer
p9410
ag3
aa(lp9411
VHeather Lucas
p9412
ag3
aa(lp9413
VAshley Robinson
p9414
ag3
aa(lp9415
VAmy Sanchez
p9416
ag3
aa(lp9417
VBenjamin Coleman
p9418
ag3
aa(lp9419
VDaniel Santiago
p9420
ag3
aa(lp9421
VPenny Murray
p9422
ag3
aa(lp9423
VLauren Nguyen
p9424
ag3
aa(lp9425
VCarolyn Allen
p9426
ag3
aa(lp9427
VGregory Wilson
p9428
ag3
aa(lp9429
VDr. Travis Mclaughlin
p9430
ag3
aa(lp9431
VBonnie Dixon
p9432
ag3
aa(lp9433
VSamuel Hicks
p9434
ag3
aa(lp9435
VThomas Dixon
p9436
ag3
aa(lp9437
VJohnny Shelton
p9438
ag3
aa(lp9439
VDaniel Burgess
p9440
ag3
aa(lp9441
VMegan Williamson
p9442
ag3
aa(lp9443
VMaureen Roberts
p9444
ag3
aa(lp9445
VJames Lynch
p9446
ag3
aa(lp9447
VJulie Baird
p9448
ag3
aa(lp9449
VErik Crosby
p9450
ag3
aa(lp9451
VZachary Merritt
p9452
ag3
aa(lp9453
VMr. Mason White PhD
p9454
ag3
aa(lp9455
VJasmine Miller
p9456
ag3
aa(lp9457
VEmily Moore
p9458
ag3
aa(lp9459
VEvan Wheeler
p9460
ag3
aa(lp9461
VMelissa Butler
p9462
ag3
aa(lp9463
VChristopher Moyer
p9464
ag3
aa(lp9465
VRobert Williams II
p9466
ag3
aa(lp9467
VCheryl Jones MD
p9468
ag3
aa(lp9469
VGlenn Blevins
p9470
ag3
aa(lp9471
VDavid Brown
p9472
ag3
aa(lp9473
VMichael Gonzalez
p9474
ag3
aa(lp9475
VReginald Smith
p9476
ag3
aa(lp9477
VJames York
p9478
ag3
aa(lp9479
VTracy Davis
p9480
ag3
aa(lp9481
VSue Bonilla
p9482
ag3
aa(lp9483
VBrianna Rowe
p9484
ag3
aa(lp9485
VMiss Kimberly Colon
p9486
ag3
aa(lp9487
VJeffrey Bennett
p9488
ag3
aa(lp9489
VAndrew Wade
p9490
ag3
aa(lp9491
VLauren Anderson
p9492
ag3
aa(lp9493
VMark Davidson
p9494
ag3
aa(lp9495
VAmanda Rodriguez
p9496
ag3
aa(lp9497
VCarolyn Sanchez
p9498
ag3
aa(lp9499
VMichael Long
p9500
ag3
aa(lp9501
VMary Brewer
p9502
ag3
aa(lp9503
VGeorge Cantrell
p9504
ag12
aa(lp9505
VRobert Cochran
p9506
ag3
aa(lp9507
VAmy Boyle
p9508
ag3
aa(lp9509
VNicole Patel
p9510
ag3
aa(lp9511
VJason Cooper
p9512
ag3
aa(lp9513
VDr. Ashley Hawkins
p9514
ag3
aa(lp9515
VJerry Webster
p9516
ag3
aa(lp9517
VJeffrey Myers Jr.
p9518
ag3
aa(lp9519
VRaymond Jennings
p9520
ag3
aa(lp9521
VMichelle Cook
p9522
ag3
aa(lp9523
VOlivia Zuniga
p9524
ag3
aa(lp9525
VTeresa Cowan
p9526
ag3
aa(lp9527
VCatherine Collins
p9528
ag3
aa(lp9529
VWilliam Sanchez
p9530
ag3
aa(lp9531
VTyler Holder
p9532
ag3
aa(lp9533
VShawna Weaver
p9534
ag3
aa(lp9535
VTom Garcia
p9536
ag3
aa(lp9537
VRichard Reilly
p9538
ag3
aa(lp9539
VSamantha Hughes
p9540
ag3
aa(lp9541
VSamantha Wright
p9542
ag3
aa(lp9543
VLauren Ho
p9544
ag3
aa(lp9545
VDavid Oconnor
p9546
ag3
aa(lp9547
VSusan Howell
p9548
ag3
aa(lp9549
VMathew Graves
p9550
ag3
aa(lp9551
VMatthew Robinson
p9552
ag3
aa(lp9553
VJesse Carter
p9554
ag3
aa(lp9555
VKaren White
p9556
ag3
aa(lp9557
VRachel Silva
p9558
ag3
aa(lp9559
VSarah Jones
p9560
ag3
aa(lp9561
VGregory Wright
p9562
ag3
aa(lp9563
VJesse Simpson
p9564
ag3
aa(lp9565
VJonathan Morgan
p9566
ag3
aa(lp9567
VJessica Davis
p9568
ag3
aa(lp9569
VAnthony Villarreal
p9570
ag3
aa(lp9571
VCarolyn Smith
p9572
ag3
aa(lp9573
VFelicia Moore
p9574
ag3
aa(lp9575
VFred Cook
p9576
ag3
aa(lp9577
VAbigail Salazar
p9578
ag3
aa(lp9579
VBrandon Duffy MD
p9580
ag3
aa(lp9581
VKatie Mccormick
p9582
ag3
aa(lp9583
VBruce Wilson
p9584
ag3
aa(lp9585
VKimberly Robinson
p9586
ag3
aa(lp9587
VLaura Moon
p9588
ag3
aa(lp9589
VRoy Sullivan
p9590
ag3
aa(lp9591
VLinda Gray
p9592
ag3
aa(lp9593
VCarlos Matthews
p9594
ag3
aa(lp9595
VMakayla Watson
p9596
ag3
aa(lp9597
VJoel Dennis
p9598
ag3
aa(lp9599
VElizabeth Brown
p9600
ag3
aa(lp9601
VJeremiah Porter
p9602
ag3
aa(lp9603
VEthan Patterson
p9604
ag12
aa(lp9605
VSeth Stone
p9606
ag3
aa(lp9607
VKurt Morris
p9608
ag3
aa(lp9609
VKevin Owen
p9610
ag3
aa(lp9611
VGary Sanchez
p9612
ag3
aa(lp9613
VSean Leonard
p9614
ag3
aa(lp9615
VRaymond Villarreal
p9616
ag3
aa(lp9617
VJohn Gould
p9618
ag3
aa(lp9619
VNathan Riley
p9620
ag3
aa(lp9621
VJerry Reid
p9622
ag3
aa(lp9623
VPatrick Kent
p9624
ag3
aa(lp9625
VBethany Carson
p9626
ag3
aa(lp9627
VHector Munoz
p9628
ag3
aa(lp9629
VJohn Brady
p9630
ag3
aa(lp9631
VKimberly Mejia
p9632
ag3
aa(lp9633
VDr. Denise Chaney
p9634
ag3
aa(lp9635
VJennifer Simpson
p9636
ag3
aa(lp9637
VShelley Copeland
p9638
ag3
aa(lp9639
VDustin Joyce
p9640
ag3
aa(lp9641
VBrandi Brown
p9642
ag3
aa(lp9643
VMichael Santiago
p9644
ag3
aa(lp9645
VWilliam Martinez
p9646
ag3
aa(lp9647
VEileen Maxwell
p9648
ag3
aa(lp9649
VJulie Cook
p9650
ag3
aa(lp9651
VBethany Turner
p9652
ag3
aa(lp9653
VAllen Spencer
p9654
ag3
aa(lp9655
VKayla Andrade
p9656
ag3
aa(lp9657
VJonathan Perez
p9658
ag3
aa(lp9659
VMichael Horton
p9660
ag3
aa(lp9661
VAllen Scott
p9662
ag3
aa.